(dp1
I831549441
(I831549441
S'Efficient Color Boundary Detection with Color-Opponent Mechanisms'
p2
S'Kaifu Yang, Shaobing Gao, Chaoyi Li, Yongjie Li'
p3
S'Yang_Efficient_Color_Boundary_2013_CVPR_paper.pdf'
p4
S'boundary detection, natural image, color opponent, biological mechanism, visual system'
p5
tp6
sI275877890
(I275877890
S'Event Retrieval in Large Video Collections with Circulant Temporal Encoding'
p7
S'Jrme Revaud, Matthijs Douze, Cordelia Schmid, Herv Jgou'
p8
S'Revaud_Event_Retrieval_in_2013_CVPR_paper.pdf'
p9
S'large-scale, video retrieval, event retrieval'
p10
tp11
sI739899401
(I739899401
S'Prostate Segmentation in CT Images via Spatial-Constrained Transductive Lasso'
p12
S'Yinghuan Shi, Shu Liao, Yaozong Gao, Daoqiang Zhang, Yang Gao, Dinggang Shen'
p13
S'Shi_Prostate_Segmentation_in_2013_CVPR_paper.pdf'
p14
S''
tp15
sI411527180
(I411527180
S'Analyzing Semantic Segmentation Using Hybrid Human-Machine CRFs'
p16
S'Roozbeh Mottaghi, Sanja Fidler, Jian Yao, Raquel Urtasun, Devi Parikh'
p17
S'Mottaghi_Analyzing_Semantic_Segmentation_2013_CVPR_paper.pdf'
p18
S''
tp19
sI118435854
(I118435854
S'Unsupervised Joint Object Discovery and Segmentation in Internet Images'
p20
S'Michael Rubinstein, Armand Joulin, Johannes Kopf, Ce Liu'
p21
S'Rubinstein_Unsupervised_Joint_Object_2013_CVPR_paper.pdf'
p22
S''
tp23
sI992071696
(I992071696
S'Occlusion Patterns for Object Class Detection'
p24
S'Bojan Pepikj, Michael Stark, Peter Gehler, Bernt Schiele'
p25
S'Pepikj_Occlusion_Patterns_for_2013_CVPR_paper.pdf'
p26
S'object detection, occlusion, DPM'
p27
tp28
sI393127955
(I393127955
S'Template-Based Isometric Deformable 3D Reconstruction with Sampling-Based Focal Length Self-Calibration'
p29
S'Adrien Bartoli, Toby Collins'
p30
S'Bartoli_Template-Based_Isometric_Deformable_2013_CVPR_paper.pdf'
p31
S''
tp32
sI717250586
(I717250586
S'CLAM: Coupled Localization and Mapping with Efficient Outlier Handling'
p33
S'Jonathan Balzer, Stefano Soatto'
p34
S'Balzer_CLAM_Coupled_Localization_2013_CVPR_paper.pdf'
p35
S''
tp36
sI364685347
(I364685347
S"Discriminative Brain Effective Connectivity Analysis for Alzheimer's Disease: A Kernel Learning Approach upon Sparse Gaussian Bayesian Network"
p37
S'Luping Zhou, Lei Wang, Lingqiao Liu, Philip Ogunbona, Dinggang Shen'
p38
S'Zhou_Discriminative_Brain_Effective_2013_CVPR_paper.pdf'
p39
S"Discriminative learning, sparse Bayesian Network, Brain connectivity analysis, Alzheimer's Disease"
p40
tp41
sI116703282
(I116703282
S'A Minimum Error Vanishing Point Detection Approach for Uncalibrated Monocular Images of Man-Made Environments'
p42
S'Yiliang Xu, Sangmin Oh, Anthony Hoogs'
p43
S'Xu_A_Minimum_Error_2013_CVPR_paper.pdf'
p44
S''
tp45
sI386949172
(I386949172
S'Designing Category-Level Attributes for Discriminative Visual Recognition'
p46
S'Felix X. Yu, Liangliang Cao, Rogerio S. Feris, John R. Smith, Shih-Fu Chang'
p47
S'Yu_Designing_Category-Level_Attributes_2013_CVPR_paper.pdf'
p48
S'attribute, object recognition, attribute design, discriminative attribute, automatic attribute design, cross-category knowledge transfer, zero-shot learning'
p49
tp50
sI675192889
(I675192889
S'Learning Discriminative Illumination and Filters for Raw Material Classification with Optimal Projections of Bidirectional Texture Functions'
p51
S'Chao Liu, Geifei Yang, Jinwei Gu'
p52
S'Liu_Learning_Discriminative_Illumination_2013_CVPR_paper.pdf'
p53
S''
tp54
sI168654913
(I168654913
S'Learning and Calibrating Per-Location Classifiers for Visual Place Recognition'
p55
S'Petr Gront, Guillaume Obozinski, Josef Sivic, Tom Pajdla'
p56
S'Gronat_Learning_and_Calibrating_2013_CVPR_paper.pdf'
p57
S'Visual place recognition, classifier calibration'
p58
tp59
sI113244227
(I113244227
S'Articulated and Restricted Motion Subspaces and Their Signatures'
p60
S'Bastien Jacquet, Roland Angst, Marc Pollefeys'
p61
S'Jacquet_Articulated_and_Restricted_2013_CVPR_paper.pdf'
p62
S'Motion subspaces, Factorization, Signature'
p63
tp64
sI735576133
(I735576133
S'Modeling Actions through State Changes'
p65
S'Alireza Fathi, James M. Rehg'
p66
S'Fathi_Modeling_Actions_through_2013_CVPR_paper.pdf'
p67
S'Action Recognition, State, Object, Smi-Supervised Learning, Egocentric'
p68
tp69
sI820953158
(I820953158
S'Human Pose Estimation Using a Joint Pixel-wise and Part-wise Formulation'
p70
S'ubor Ladick, Philip H.S. Torr, Andrew Zisserman'
p71
S'Ladicky_Human_Pose_Estimation_2013_CVPR_paper.pdf'
p72
S'Pose Estimation, Pictorial Structures, Conditional Random Fields'
p73
tp74
sI541786187
(I541786187
S'Cartesian K-Means'
p75
S'Mohammad Norouzi, David J. Fleet'
p76
S'Norouzi_Cartesian_K-Means_2013_CVPR_paper.pdf'
p77
S'quantization, product quantization, nearest neighbor search, approximate nearest neighbor search, euclidean nearest neighbor search, hashing, retrieval, large-scale, codebook, learning, cartesian, bag of words'
p78
tp79
sI860802506
(I860802506
S'Weakly-Supervised Dual Clustering for Image Semantic Segmentation'
p80
S'Yang Liu, Jing Liu, Zechao Li, Jinhui Tang, Hanqing Lu'
p81
S'Liu_Weakly-Supervised_Dual_Clustering_2013_CVPR_paper.pdf'
p82
S'Image Semantic Segmentation, Weakly-Supervised'
p83
tp84
sI734603349
(I734603349
S'K-Means Hashing: An Affinity-Preserving Quantization Method for Learning Binary Compact Codes'
p85
S'Kaiming He, Fang Wen, Jian Sun'
p86
S'He_K-Means_Hashing_An_2013_CVPR_paper.pdf'
p87
S'hash, binary embedding, nearest neighbor search'
p88
tp89
sI143153242
(I143153242
S'Augmenting CRFs with Boltzmann Machine Shape Priors for Image Labeling'
p90
S'Andrew Kae, Kihyuk Sohn, Honglak Lee, Erik Learned-Miller'
p91
S'Kae_Augmenting_CRFs_with_2013_CVPR_paper.pdf'
p92
S'attributes, segmentation, face processing, deep learning'
p93
tp94
sI988564838
(I988564838
S'Reconstructing Loopy Curvilinear Structures Using Integer Programming'
p95
S'Engin Tretken, Fethallah Benmansour, Bjoern Andres, Hanspeter Pfister, Pascal Fua'
p96
S'Turetken_Reconstructing_Loopy_Curvilinear_2013_CVPR_paper.pdf'
p97
S''
tp98
sI550948966
(I550948966
S'Reconstructing Gas Flows Using Light-Path Approximation'
p99
S'Yu Ji, Jinwei Ye, Jingyi Yu'
p100
S'Ji_Reconstructing_Gas_Flows_2013_CVPR_paper.pdf'
p101
S''
tp102
sI656404586
(I656404586
S'Improved Image Set Classification via Joint Sparse Approximated Nearest Subspaces'
p103
S'Shaokang Chen, Conrad Sanderson, Mehrtash T. Harandi, Brian C. Lovell'
p104
S'Chen_Improved_Image_Set_2013_CVPR_paper.pdf'
p105
S'Joint Sparse Representation, Grassmann Manifold, Adaptive Clustering, Multi-model Image Set Matching'
p106
tp107
sI562147435
(I562147435
S'Rolling Shutter Camera Calibration'
p108
S'Luc Oth, Paul Furgale, Laurent Kneip, Roland Siegwart'
p109
S'Oth_Rolling_Shutter_Camera_2013_CVPR_paper.pdf'
p110
S'rolling shutter camera, calibration, continuous-time estimation'
p111
tp112
sI952769191
(I952769191
S'As-Projective-As-Possible Image Stitching with Moving DLT'
p113
S'Julio Zaragoza, Tat-Jun Chin, Michael S. Brown, David Suter'
p114
S'Zaragoza_As-Projective-As-Possible_Image_Stitching_2013_CVPR_paper.pdf'
p115
S'Image Stitching, DLT, Moving Least Squares'
p116
tp117
sI326332528
(I326332528
S'Video Object Segmentation through Spatially Accurate and Temporally Dense Extraction of Primary Object Regions'
p118
S'Dong Zhang, Omar Javed, Mubarak Shah'
p119
S'Zhang_Video_Object_Segmentation_2013_CVPR_paper.pdf'
p120
S'Computer Vision, Video Segmentation, Object Segmentation'
p121
tp122
sI524357745
(I524357745
S'Efficient Maximum Appearance Search for Large-Scale Object Detection'
p123
S'Qiang Chen, Zheng Song, Rogerio Feris, Ankur Datta, Liangliang Cao, Zhongyang Huang, Shuicheng Yan'
p124
S'Chen_Efficient_Maximum_Appearance_2013_CVPR_paper.pdf'
p125
S''
tp126
sI513585268
(I513585268
S'A Joint Model for 2D and 3D Pose Estimation from a Single Image'
p127
S'Edgar Simo-Serra, Ariadna Quattoni, Carme Torras, Francesc Moreno-Noguer'
p128
S'Simo-Serra_A_Joint_Model_2013_CVPR_paper.pdf'
p129
S''
tp130
sI728086645
(I728086645
S'Large Displacement Optical Flow from Nearest Neighbor Fields'
p131
S'Zhuoyuan Chen, Hailin Jin, Zhe Lin, Scott Cohen, Ying Wu'
p132
S'Chen_Large_Displacement_Optical_2013_CVPR_paper.pdf'
p133
S'Optical Flow, PatchMatch, Randomized Algorithm, Motion Segmentation'
p134
tp135
sI818663542
(I818663542
S'Least Soft-Threshold Squares Tracking'
p136
S'Dong Wang, Huchuan Lu, Ming-Hsuan Yang'
p137
S'Wang_Least_Soft-Threshold_Squares_2013_CVPR_paper.pdf'
p138
S', Object Tracking'
p139
tp140
sI291063934
(I291063934
S'Exploring Implicit Image Statistics for Visual Representativeness Modeling'
p141
S'Xiaoshuai Sun, Xin-Jing Wang, Hongxun Yao, Lei Zhang'
p142
S'Sun_Exploring_Implicit_Image_2013_CVPR_paper.pdf'
p143
S''
tp144
sI711102591
(I711102591
S'Single-Pedestrian Detection Aided by Multi-pedestrian Detection'
p145
S'Wanli Ouyang, Xiaogang Wang'
p146
S'Ouyang_Single-Pedestrian_Detection_Aided_2013_CVPR_paper.pdf'
p147
S'Pedestrian Detection, object detection, human detection, part based model, deformable model'
p148
tp149
sI995104897
(I995104897
S'Robust Real-Time Tracking of Multiple Objects by Volumetric Mass Densities'
p150
S'Horst Possegger, Sabine Sternig, Thomas Mauthner, Peter M. Roth, Horst Bischof'
p151
S'Possegger_Robust_Real-Time_Tracking_2013_CVPR_paper.pdf'
p152
S'Tracking, Multiple Object, Multiple Camera, Occupancy Volume'
p153
tp154
sI204056708
(I204056708
S'Multipath Sparse Coding Using Hierarchical Matching Pursuit'
p155
S'Liefeng Bo, Xiaofeng Ren, Dieter Fox'
p156
S'Bo_Multipath_Sparse_Coding_2013_CVPR_paper.pdf'
p157
S'Object Recognition, Sparse Coding, Feature Learning, Deep Learning'
p158
tp159
sI878264455
(I878264455
S'Computing Diffeomorphic Paths for Large Motion Interpolation'
p160
S'Dohyung Seo, Jeffrey Ho, Baba C. Vemuri'
p161
S'Seo_Computing_Diffeomorphic_Paths_2013_CVPR_paper.pdf'
p162
S''
tp163
sI818638987
(I818638987
S'A Convex Regularize for Reducing Color Artifact in Color Image Recovery'
p164
S'Shunsuke Ono, Isao Yamada'
p165
S'Ono_A_Convex_Regularize_2013_CVPR_paper.pdf'
p166
S'Color image recovery, color lines, convex optimization'
p167
tp168
sI500551833
(I500551833
S'Hallucinated Humans as the Hidden Context for Labeling 3D Scenes'
p169
S'Yun Jiang, Hema Koppula, Ashutosh Saxena'
p170
S'Jiang_Hallucinated_Humans_as_2013_CVPR_paper.pdf'
p171
S'scene labeling, hallucinated humans'
p172
tp173
sI957718688
(I957718688
S'MODEC: Multimodal Decomposable Models for Human Pose Estimation'
p174
S'Ben Sapp, Ben Taskar'
p175
S'Sapp_MODEC_Multimodal_Decomposable_2013_CVPR_paper.pdf'
p176
S''
tp177
sI861007336
(I861007336
S'Spatiotemporal Deformable Part Models for Action Detection'
p178
S'Yicong Tian, Rahul Sukthankar, Mubarak Shah'
p179
S'Tian_Spatiotemporal_Deformable_Part_2013_CVPR_paper.pdf'
p180
S''
tp181
sI456671398
(I456671398
S'Uncalibrated Photometric Stereo for Unknown Isotropic Reflectances'
p182
S'Feng Lu, Yasuyuki Matsushita, Imari Sato, Takahiro Okabe, Yoichi Sato'
p183
S'Lu_Uncalibrated_Photometric_Stereo_2013_CVPR_paper.pdf'
p184
S''
tp185
sI795455655
(I795455655
S'Real-Time Model-Based Rigid Object Pose Estimation and Tracking Combining Dense and Sparse Visual Cues'
p186
S'Karl Pauwels, Leonardo Rubio, Javier Daz, Eduardo Ros'
p187
S'Pauwels_Real-Time_Model-Based_Rigid_2013_CVPR_paper.pdf'
p188
S'real-time, model-based, optical flow, stereo, SIFT, 6DOF pose estimation, tracking, ICP, graphics processing unit, benchmark'
p189
tp190
sI121372841
(I121372841
S'Subcategory-Aware Object Classification'
p191
S'Jian Dong, Wei Xia, Qiang Chen, Jianshi Feng, Zhongyang Huang, Shuicheng Yan'
p192
S'Dong_Subcategory-Aware_Object_Classification_2013_CVPR_paper.pdf'
p193
S'Subcategory Mining, Classification, Ambiguity Modeling'
p194
tp195
sI884902058
(I884902058
S'A Sentence Is Worth a Thousand Pixels'
p196
S'Sanja Fidler, Abhishek Sharma, Raquel Urtasun'
p197
S'Fidler_A_Sentence_Is_2013_CVPR_paper.pdf'
p198
S'Scene understanding, Images and text, Holistic scene models'
p199
tp200
sI610558128
(I610558128
S'Detecting Changes in 3D Structure of a Scene from Multi-view Images Captured by a Vehicle-Mounted Camera'
p201
S'Ken Sakurada, Takayuki Okatani, Koichiro Deguchi'
p202
S'Sakurada_Detecting_Changes_in_2013_CVPR_paper.pdf'
p203
S''
tp204
sI665979057
(I665979057
S'Discrete MRF Inference of Marginal Densities for Non-uniformly Discretized Variable Space'
p205
S'Masaki Saito, Takayuki Okatani, Koichiro Deguchi'
p206
S'Saito_Discrete_MRF_Inference_2013_CVPR_paper.pdf'
p207
S'Markov Random Fields, mean field approximation, belief propagation, marginal density'
p208
tp209
sI221554035
(I221554035
S'Composite Statistical Inference for Semantic Segmentation'
p210
S'Fuxin Li, Joao Carreira, Guy Lebanon, Cristian Sminchisescu'
p211
S'Li_Composite_Statistical_Inference_2013_CVPR_paper.pdf'
p212
S'composite statistical inference, composite likelihood, semantic segmentation, recombination of segments'
p213
tp214
sI738726068
(I738726068
S'Learning without Human Scores for Blind Image Quality Assessment'
p215
S'Wufeng Xue, Lei Zhang, Xuanqin Mou'
p216
S'Xue_Learning_without_Human_2013_CVPR_paper.pdf'
p217
S'clustering, qualiyt aware, bind image quality assessment'
p218
tp219
sI42600631
(I42600631
S'Graph-Based Discriminative Learning for Location Recognition'
p220
S'Song Cao, Noah Snavely'
p221
S'Cao_Graph-Based_Discriminative_Learning_2013_CVPR_paper.pdf'
p222
S'image graph, location recognition, discriminative learning'
p223
tp224
sI916009145
(I916009145
S'Capturing Layers in Image Collections with Componential Models: From the Layered Epitome to the Componential Counting Grid'
p225
S'Alessandro Perina, Nebojsa Jojic'
p226
S'Perina_Capturing_Layers_in_2013_CVPR_paper.pdf'
p227
S'Bag of Words, Epitome, Scene Understanding, Generative Model, Place Recognition'
p228
tp229
sI88275132
(I88275132
S'Minimum Uncertainty Gap for Robust Visual Tracking'
p230
S'Junseok Kwon, Kyoung Mu Lee'
p231
S'Kwon_Minimum_Uncertainty_Gap_2013_CVPR_paper.pdf'
p232
S''
tp233
sI581468351
(I581468351
S'Monocular Template-Based 3D Reconstruction of Extensible Surfaces with Local Linear Elasticity'
p234
S'Abed Malti, Richard Hartley, Adrien Bartoli, Jae-Hak Kim'
p235
S'Malti_Monocular_Template-Based_3D_2013_CVPR_paper.pdf'
p236
S''
tp237
sI177125574
(I177125574
S'Manhattan Junction Catalogue for Spatial Reasoning of Indoor Scenes'
p238
S'Srikumar Ramalingam, Jaishanker K. Pillai, Arpit Jain, Yuichi Taguchi'
p239
S'Ramalingam_Manhattan_Junction_Catalogue_2013_CVPR_paper.pdf'
p240
S'single view 3D reconstruction, line drawing, junction detection, higher order CRF, structured SVM'
p241
tp242
sI118485193
(I118485193
S'Depth Acquisition from Density Modulated Binary Patterns'
p243
S'Zhe Yang, Zhiwei Xiong, Yueyi Zhang, Jiao Wang, Feng Wu'
p244
S'Yang_Depth_Acquisition_from_2013_CVPR_paper.pdf'
p245
S'Depth acquisition, binary pattern, density modulation, block matching, phase shifting'
p246
tp247
sI177813706
(I177813706
S'FrameBreak: Dramatic Image Extrapolation by Guided Shift-Maps'
p248
S'Yinda Zhang, Jianxiong Xiao, James Hays, Ping Tan'
p249
S'Zhang_FrameBreak_Dramatic_Image_2013_CVPR_paper.pdf'
p250
S'image extrapolation, panorama, guided shift-map'
p251
tp252
sI81324240
(I81324240
S'Learning Compact Binary Codes for Visual Tracking'
p253
S'Xi Li, Chunhua Shen, Anthony Dick, Anton van_den_Hengel'
p254
S'Li_Learning_Compact_Binary_2013_CVPR_paper.pdf'
p255
S'Visual Tracking, appearance model, hashing, hypergraph, SVM'
p256
tp257
sI727924945
(I727924945
S'Classification of Tumor Histology via Morphometric Context'
p258
S'Hang Chang, Alexander Borowsky, Paul Spellman, Bahram Parvin'
p259
S'Chang_Classification_of_Tumor_2013_CVPR_paper.pdf'
p260
S''
tp261
sI219881689
(I219881689
S'Cumulative Attribute Space for Age and Crowd Density Estimation'
p262
S'Ke Chen, Shaogang Gong, Tao Xiang, Chen Change Loy'
p263
S'Chen_Cumulative_Attribute_Space_2013_CVPR_paper.pdf'
p264
S'Cumulative attributes, Age estimation, Crowd density estimation'
p265
tp266
sI602910945
(I602910945
S'Kernel Methods on the Riemannian Manifold of Symmetric Positive Definite Matrices'
p267
S'Sadeep Jayasumana, Richard Hartley, Mathieu Salzmann, Hongdong Li, Mehrtash Harandi'
p268
S'Jayasumana_Kernel_Methods_on_2013_CVPR_paper.pdf'
p269
S'Riemannian manifolds, RKHS, Hilbert space embedding, Symmetric positive definite matrices, kernel methods, positive definite kernels'
p270
tp271
sI600260836
(I600260836
S'Dense Object Reconstruction with Semantic Priors'
p272
S'Sid Yingze Bao, Manmohan Chandraker, Yuanqing Lin, Silvio Savarese'
p273
S'Bao_Dense_Object_Reconstruction_2013_CVPR_paper.pdf'
p274
S''
tp275
sI588048614
(I588048614
S'Spatio-temporal Depth Cuboid Similarity Feature for Activity Recognition Using Depth Camera'
p276
S'Lu Xia, J.K. Aggarwal'
p277
S'Xia_Spatio-temporal_Depth_Cuboid_2013_CVPR_paper.pdf'
p278
S'Spatio temporal interest point, depth image, activity recognition, Kinect'
p279
tp280
sI497078508
(I497078508
S'Tag Taxonomy Aware Dictionary Learning for Region Tagging'
p281
S'Jingjing Zheng, Zhuolin Jiang'
p282
S'Zheng_Tag_Taxonomy_Aware_2013_CVPR_paper.pdf'
p283
S''
tp284
sI3135729
(I3135729
S'Five Shades of Grey for Fast and Reliable Camera Pose Estimation'
p285
S'Adam Herout, Istvn Szentandrsi, Michal Zachari, Markta Dubsk, Rudolf Kajan'
p286
S'Herout_Five_Shades_of_2013_CVPR_paper.pdf'
p287
S'Fiduciary Markers, Uniform Marker Field, Checkerboard Detection, Camera Pose Estimation, Augmented Reality, De-Bruijn Tori, Perfect Maps, Visually Appealing Markers'
p288
tp289
sI11313394
(I11313394
S'Social Role Discovery in Human Events'
p290
S'Vignesh Ramanathan, Bangpeng Yao, Li Fei-Fei'
p291
S'Ramanathan_Social_Role_Discovery_2013_CVPR_paper.pdf'
p292
S''
tp293
sI541532406
(I541532406
S'Simultaneous Super-Resolution of Depth and Images Using a Single Camera'
p294
S'Hee Seok Lee, Kuoung Mu Lee'
p295
S'Lee_Simultaneous_Super-Resolution_of_2013_CVPR_paper.pdf'
p296
S'Dense 3D reconstruction, Image super-resolution, Visual SLAM'
p297
tp298
sI895850743
(I895850743
S'Learning Separable Filters'
p299
S'Roberto Rigamonti, Amos Sironi, Vincent Lepetit, Pascal Fua'
p300
S'Rigamonti_Learning_Separable_Filters_2013_CVPR_paper.pdf'
p301
S''
tp302
sI389744892
(I389744892
S'Rotation, Scaling and Deformation Invariant Scattering for Texture Discrimination'
p303
S'Laurent Sifre, Stphane Mallat'
p304
S'Sifre_Rotation_Scaling_and_2013_CVPR_paper.pdf'
p305
S'scattering, invariant, affine, texture, classification, deep, neural, network, wavelet, roto-translation, rotation, translation, scaling, shearing'
p306
tp307
sI871721219
(I871721219
S'Dictionary Learning from Ambiguously Labeled Data'
p308
S'Yi-Chen Chen, Vishal M. Patel, Jaishanker K. Pillai, Rama Chellappa, P. Jonathon Phillips'
p309
S'Chen_Dictionary_Learning_from_2013_CVPR_paper.pdf'
p310
S'Ambiguously labeled learning, dictionary-based learning'
p311
tp312
sI78551304
(I78551304
S'SLAM++: Simultaneous Localisation and Mapping at the Level of Objects'
p313
S'Renato F. Salas-Moreno, Richard A. Newcombe, Hauke Strasdat, Paul H.J. Kelly, Andrew J. Davison'
p314
S'Salas-Moreno_SLAM_Simultaneous_Localisation_2013_CVPR_paper.pdf'
p315
S'SLAM, objects, object recognition, object-oriented, GPGPU, scene understanding, real-time, augmented reality, ICP, KinectFusion'
p316
tp317
sI212848913
(I212848913
S'Correspondence-Less Non-rigid Registration of Triangular Surface Meshes'
p318
S'Zsolt Snta, Zoltan Kato'
p319
S'Santa_Correspondence-Less_Non-rigid_Registration_2013_CVPR_paper.pdf'
p320
S'Registration, Thin Plate Spline, Sufrace Mesh, 3D object'
p321
tp322
sI439718165
(I439718165
S'Locally Aligned Feature Transforms across Views'
p323
S'Wei Li, Xiaogang Wang'
p324
S'Li_Locally_Aligned_Feature_2013_CVPR_paper.pdf'
p325
S''
tp326
sI139487514
(I139487514
S'Detecting and Naming Actors in Movies Using Generative Appearance Models'
p327
S'Vineet Gandhi, Remi Ronfard'
p328
S'Gandhi_Detecting_and_Naming_2013_CVPR_paper.pdf'
p329
S'Human detection and identification'
p330
tp331
sI707430684
(I707430684
S'City-Scale Change Detection in Cadastral 3D Models Using Images'
p332
S'Aparna Taneja, Luca Ballan, Marc Pollefeys'
p333
S'Taneja_City-Scale_Change_Detection_2013_CVPR_paper.pdf'
p334
S'Change Detection, 3D modeling, Large scale computer vision application'
p335
tp336
sI475437344
(I475437344
S'Fast Patch-Based Denoising Using Approximated Patch Geodesic Paths'
p337
S'Xiaogang Chen, Sing Bing Kang, Jie Yang, Jingyi Yu'
p338
S'Chen_Fast_Patch-Based_Denoising_2013_CVPR_paper.pdf'
p339
S''
tp340
sI349311267
(I349311267
S'Semi-supervised Node Splitting for Random Forest Construction'
p341
S'Xiao Liu, Mingli Song, Dacheng Tao, Zicheng Liu, Luming Zhang, Chun Chen, Jiajun Bu'
p342
S'Liu_Semi-supervised_Node_Splitting_2013_CVPR_paper.pdf'
p343
S'semi-supervised learning, node splitting, random forest'
p344
tp345
sI398252329
(I398252329
S'Robust Multi-resolution Pedestrian Detection in Traffic Scenes'
p346
S'Junjie Yan, Xucong Zhang, Zhen Lei, Shengcai Liao, Stan Z. Li'
p347
S'Yan_Robust_Multi-resolution_Pedestrian_2013_CVPR_paper.pdf'
p348
S'Pedestrian Detection, Multi-Resolution, Multi-task Learning, DPM'
p349
tp350
sI618238257
(I618238257
S'GRASP Recurring Patterns from a Single View'
p351
S'Jingchen Liu, Yanxi Liu'
p352
S'Liu_GRASP_Recurring_Patterns_2013_CVPR_paper.pdf'
p353
S'recurring pattern, unsupervised object discovery'
p354
tp355
sI585711927
(I585711927
S'Background Modeling Based on Bidirectional Analysis'
p356
S'Atsushi Shimada, Hajime Nagahara, Rin-ichiro Taniguchi'
p357
S'Shimada_Background_Modeling_Based_2013_CVPR_paper.pdf'
p358
S''
tp359
sI320766264
(I320766264
S'Query Adaptive Similarity for Large Scale Object Retrieval'
p360
S'Danfeng Qin, Christian Wengert, Luc Van_Gool'
p361
S'Qin_Query_Adaptive_Similarity_2013_CVPR_paper.pdf'
p362
S'Object Retrieval, Query Adaptive Similarity, Feature-Feature Similarity, Negative Examples, Probabilistic Framework'
p363
tp364
sI286751033
(I286751033
S'A Genetic Algorithm-Based Solver for Very Large Jigsaw Puzzles'
p365
S'Dror Sholomon, Omid David, Nathan S. Netanyahu'
p366
S'Sholomon_A_Genetic_Algorithm-Based_2013_CVPR_paper.pdf'
p367
S'Genetic Algorithms, Jigsaw Puzzle'
p368
tp369
sI495317312
(I495317312
S'Bottom-Up Segmentation for Top-Down Detection'
p370
S'Sanja Fidler, Roozbeh Mottaghi, Alan Yuille, Raquel Urtasun'
p371
S'Fidler_Bottom-Up_Segmentation_for_2013_CVPR_paper.pdf'
p372
S'Object detection, object class recognition, object segmentation'
p373
tp374
sI268689736
(I268689736
S'Statistical Textural Distinctiveness for Salient Region Detection in Natural Images'
p375
S'Christian Scharfenberger, Alexander Wong, Khalil Fergani, John S. Zelek, David A. Clausi'
p376
S'Scharfenberger_Statistical_Textural_Distinctiveness_2013_CVPR_paper.pdf'
p377
S'Statistical textural distinctiveness, saliency computation, sparse texture model, low level image processing'
p378
tp379
sI605428056
(I605428056
S'Lp-Norm IDF for Large Scale Image Search'
p380
S'Liang Zheng, Shengjin Wang, Ziqiong Liu, Qi Tian'
p381
S'Zheng_Lp-Norm_IDF_for_2013_CVPR_paper.pdf'
p382
S''
tp383
sI628638045
(I628638045
S'Single Image Calibration of Multi-axial Imaging Systems'
p384
S'Amit Agrawal, Srikumar Ramalingam'
p385
S'Agrawal_Single_Image_Calibration_2013_CVPR_paper.pdf'
p386
S'calibration, catadioptric, spherical mirror, wide-angle, axial'
p387
tp388
sI132577635
(I132577635
S'Label-Embedding for Attribute-Based Classification'
p389
S'Zeynep Akata, Florent Perronnin, Zaid Harchaoui, Cordelia Schmid'
p390
S'Akata_Label-Embedding_for_Attribute-Based_2013_CVPR_paper.pdf'
p391
S''
tp392
sI462206694
(I462206694
S'Finding Things: Image Parsing with Regions and Per-Exemplar Detectors'
p393
S'Joseph Tighe, Svetlana Lazebnik'
p394
S'Tighe_Finding_Things_Image_2013_CVPR_paper.pdf'
p395
S'semantic segmentation, image parsing, parsing, computer vision, recognition'
p396
tp397
sI857467245
(I857467245
S'Part Discovery from Partial Correspondence'
p398
S'Subhransu Maji, Gregory Shakhnarovich'
p399
S'Maji_Part_Discovery_from_2013_CVPR_paper.pdf'
p400
S''
tp401
sI653369177
(I653369177
S'Fast Convolutional Sparse Coding'
p402
S'Hilton Bristow, Anders Eriksson, Simon Lucey'
p403
S'Bristow_Fast_Convolutional_Sparse_2013_CVPR_paper.pdf'
p404
S'ADMM, sparse coding, fourier, convolution, deep learning'
p405
tp406
sI79995249
(I79995249
S'Learning Locally-Adaptive Decision Functions for Person Verification'
p407
S'Zhen Li, Shiyu Chang, Feng Liang, Thomas S. Huang, Liangliang Cao, John R. Smith'
p408
S'Li_Learning_Locally-Adaptive_Decision_2013_CVPR_paper.pdf'
p409
S'Person Verification, Face Verification, Pedestrian Re-identification'
p410
tp411
sI54616440
(I54616440
S'A Fully-Connected Layered Model of Foreground and Background Flow'
p412
S'Deqing Sun, Jonas Wulff, Erik B. Sudderth, Hanspeter Pfister, Michael J. Black'
p413
S'Sun_A_Fully-Connected_Layered_2013_CVPR_paper.pdf'
p414
S''
tp415
sI11985275
(I11985275
S'Perceptual Organization and Recognition of Indoor Scenes from RGB-D Images'
p416
S'Saurabh Gupta, Pablo Arbelez, Jitendra Malik'
p417
S'Gupta_Perceptual_Organization_and_2013_CVPR_paper.pdf'
p418
S'RGBD Segmentation, RGBD Recognition'
p419
tp420
sI643508613
(I643508613
S'Joint 3D Scene Reconstruction and Class Segmentation'
p421
S'Christian Hne, Christopher Zach, Andrea Cohen, Roland Angst, Marc Pollefeys'
p422
S'Hane_Joint_3D_Scene_2013_CVPR_paper.pdf'
p423
S''
tp424
sI505446790
(I505446790
S'Determining Motion Directly from Normal Flows Upon the Use of a Spherical Eye Platform'
p425
S'Tak-Wai Hui, Ronald Chung'
p426
S'Hui_Determining_Motion_Directly_2013_CVPR_paper.pdf'
p427
S''
tp428
sI936617415
(I936617415
S'Texture Enhanced Image Denoising via Gradient Histogram Preservation'
p429
S'Wangmeng Zuo, Lei Zhang, Chunwei Song, David Zhang'
p430
S'Zuo_Texture_Enhanced_Image_2013_CVPR_paper.pdf'
p431
S''
tp432
sI821604747
(I821604747
S'Robust Estimation of Nonrigid Transformation for Point Set Registration'
p433
S'Jiayi Ma, Ji Zhao, Jinwen Tian, Zhuowen Tu, Alan L. Yuille'
p434
S'Ma_Robust_Estimation_of_2013_CVPR_paper.pdf'
p435
S'L2E, registration, outlier, nonrigid, regularization'
p436
tp437
sI419176174
(I419176174
S'Consensus of k-NNs for Robust Neighborhood Selection on Graph-Based Manifolds'
p438
S'Vittal Premachandran, Ramakrishna Kakarala'
p439
S'Premachandran_Consensus_of_k-NNs_2013_CVPR_paper.pdf'
p440
S'graph sparsification, manifold learning'
p441
tp442
sI406653335
(I406653335
S'Exemplar-Based Face Parsing'
p443
S'Brandon M. Smith, Li Zhang, Jonathan Brandt, Zhe Lin, Jianchao Yang'
p444
S'Smith_Exemplar-Based_Face_Parsing_2013_CVPR_paper.pdf'
p445
S''
tp446
sI380969374
(I380969374
S'Gauging Association Patterns of Chromosome Territories via Chromatic Median'
p447
S'Hu Ding, Branislav Stojkovic, Ronald Berezney, Jinhui Xu'
p448
S'Ding_Gauging_Association_Patterns_2013_CVPR_paper.pdf'
p449
S''
tp450
sI677237152
(I677237152
S'Scene Coordinate Regression Forests for Camera Relocalization in RGB-D Images'
p451
S'Jamie Shotton, Ben Glocker, Christopher Zach, Shahram Izadi, Antonio Criminisi, Andrew Fitzgibbon'
p452
S'Shotton_Scene_Coordinate_Regression_2013_CVPR_paper.pdf'
p453
S''
tp454
sI54358435
(I54358435
S'Multi-attribute Queries: To Merge or Not to Merge?'
p455
S'Mohammad Rastegari, Ali Diba, Devi Parikh, Ali Farhadi'
p456
S'Rastegari_Multi-attribute_Queries_To_2013_CVPR_paper.pdf'
p457
S''
tp458
sI650650021
(I650650021
S'Fast Rigid Motion Segmentation via Incrementally-Complex Local Models'
p459
S'Fernando Flores-Mangas, Allan D. Jepson'
p460
S'Flores-Mangas_Fast_Rigid_Motion_2013_CVPR_paper.pdf'
p461
S'Motion Segmentation, Motion Model Instantiation, Model Selection, Multi-body Structure from Motion'
p462
tp463
sI403141030
(I403141030
S'Hyperbolic Harmonic Mapping for Constrained Brain Surface Registration'
p464
S'Rui Shi, Wei Zeng, Zhengyu Su, Hanna Damasio, Zhonglin Lu, Yalin Wang, Shing-Tung Yau, Xianfeng Gu'
p465
S'Shi_Hyperbolic_Harmonic_Mapping_2013_CVPR_paper.pdf'
p466
S''
tp467
sI319269290
(I319269290
S'Information Consensus for Distributed Multi-target Tracking'
p468
S'Ahmed T. Kamal, Jay A. Farrell, Amit K. Roy-Chowdhury'
p469
S'Kamal_Information_Consensus_for_2013_CVPR_paper.pdf'
p470
S'distributed, sensor network, camera network, consensus, Kalman filter, data association, tracking'
p471
tp472
sI167612845
(I167612845
S'Robust Monocular Epipolar Flow Estimation'
p473
S'Koichiro Yamaguchi, David McAllester, Raquel Urtasun'
p474
S'Yamaguchi_Robust_Monocular_Epipolar_2013_CVPR_paper.pdf'
p475
S'Optical flow, Autonomous driving'
p476
tp477
sI686961073
(I686961073
S'Maximum Cohesive Grid of Superpixels for Fast Object Localization'
p478
S'Liang Li, Wei Feng, Liang Wan, Jiawan Zhang'
p479
S'Li_Maximum_Cohesive_Grid_2013_CVPR_paper.pdf'
p480
S'Maximum grid of superpixels, object localization, dynamic programming'
p481
tp482
sI913967541
(I913967541
S'Tracking Sports Players with Context-Conditioned Motion Models'
p483
S'Jingchen Liu, Peter Carr, Robert T. Collins, Yanxi Liu'
p484
S'Liu_Tracking_Sports_Players_2013_CVPR_paper.pdf'
p485
S'multi-target tracking, data association, sports analysis, game context feature'
p486
tp487
sI370966981
(I370966981
S'Sparse Output Coding for Large-Scale Visual Recognition'
p488
S'Bin Zhao, Eric P. Xing'
p489
S'Zhao_Sparse_Output_Coding_2013_CVPR_paper.pdf'
p490
S''
tp491
sI612538828
(I612538828
S'Whitened Expectation Propagation: Non-Lambertian Shape from Shading and Shadow'
p492
S'Brian Potetz, Mohammadreza Hajiarbabi'
p493
S'Potetz_Whitened_Expectation_Propagation_2013_CVPR_paper.pdf'
p494
S'Shape from shading, Shape from shadow, Approximate inference, Expectation Propagation, Shape from X'
p495
tp496
sI726772178
(I726772178
S'Winding Number for Region-Boundary Consistent Salient Contour Extraction'
p497
S'Yansheng Ming, Hongdong Li, Xuming He'
p498
S'Ming_Winding_Number_for_2013_CVPR_paper.pdf'
p499
S''
tp500
sI341811668
(I341811668
S'Detection of Manipulation Action Consequences (MAC)'
p501
S'Yezhou Yang, Cornelia Fermller, Yiannis Aloimonos'
p502
S'Yang_Detection_of_Manipulation_2013_CVPR_paper.pdf'
p503
S''
tp504
sI243438038
(I243438038
S'What Object Motion Reveals about Shape with Unknown BRDF and Lighting'
p505
S'Manmohan Chandraker, Dikpal Reddy, Yizhou Wang, Ravi Ramamoorthi'
p506
S'Chandraker_What_Object_Motion_2013_CVPR_paper.pdf'
p507
S''
tp508
sI147669465
(I147669465
S'A Global Approach for the Detection of Vanishing Points and Mutually Orthogonal Vanishing Directions'
p509
S'Michel Antunes, Joo P. Barreto'
p510
S'Antunes_A_Global_Approach_2013_CVPR_paper.pdf'
p511
S'vanishing point, mutually orthogonal vanishing directions, Facility Location'
p512
tp513
sI860418534
(I860418534
S'Spatial Inference Machines'
p514
S'Roman Shapovalov, Dmitry Vetrov, Pushmeet Kohli'
p515
S'Shapovalov_Spatial_Inference_Machines_2013_CVPR_paper.pdf'
p516
S'computer vision, semantic segmentation, scene understanding, inference machines, 3D point clouds, depth images'
p517
tp518
sI715891176
(I715891176
S'Can a Fully Unconstrained Imaging Model Be Applied Effectively to Central Cameras?'
p519
S'Filippo Bergamasco, Andrea Albarelli, Emanuele Rodol, Andrea Torsello'
p520
S'Bergamasco_Can_a_Fully_2013_CVPR_paper.pdf'
p521
S'Camera Calibration, General Camera Model, Raxels'
p522
tp523
sI823247342
(I823247342
S'A Video Representation Using Temporal Superpixels'
p524
S'Jason Chang, Donglai Wei, John W. Fisher_III'
p525
S'Chang_A_Video_Representation_2013_CVPR_paper.pdf'
p526
S'superpixels, supervoxels, oversegmentation, video segmentation, tracking'
p527
tp528
sI901304819
(I901304819
S'Unnatural L0 Sparse Representation for Natural Image Deblurring'
p529
S'Li Xu, Shicheng Zheng, Jiaya Jia'
p530
S'Xu_Unnatural_L0_Sparse_2013_CVPR_paper.pdf'
p531
S''
tp532
sI723165684
(I723165684
S'Compressible Motion Fields'
p533
S'Giuseppe Ottaviano, Pushmeet Kohli'
p534
S'Ottaviano_Compressible_Motion_Fields_2013_CVPR_paper.pdf'
p535
S'motion fields, video compression, quantization, wavelets'
p536
tp537
sI12476918
(I12476918
S'An Approach to Pose-Based Action Recognition'
p538
S'Chunyu Wang, Yizhou Wang, Alan L. Yuille'
p539
S'Wang_An_Approach_to_2013_CVPR_paper.pdf'
p540
S'pose estimation, action recognition, feature learning'
p541
tp542
sI241615351
(I241615351
S'Fast Energy Minimization Using Learned State Filters'
p543
S'Matthieu Guillaumin, Luc Van_Gool, Vittorio Ferrari'
p544
S'Guillaumin_Fast_Energy_Minimization_2013_CVPR_paper.pdf'
p545
S''
tp546
sI844692564
(I844692564
S'Fast Image Super-Resolution Based on In-Place Example Regression'
p547
S'Jianchao Yang, Zhe Lin, Scott Cohen'
p548
S'Yang_Fast_Image_Super-Resolution_2013_CVPR_paper.pdf'
p549
S'super-resolution, self-example, self-similarity, in-place matching, image restoration, image upscaling'
p550
tp551
sI245544021
(I245544021
S'From Local Similarity to Global Coding: An Application to Image Classification'
p552
S'Amirreza Shaban, Hamid R. Rabiee, Mehrdad Farajtabar, Marjan Ghazvininejad'
p553
S'Shaban_From_Local_Similarity_2013_CVPR_paper.pdf'
p554
S'Image Classification, Bag of Words, Manifold Learning, Global Coding'
p555
tp556
sI214944262
(I214944262
S'Universality of the Local Marginal Polytope'
p557
S'Daniel Pra, Tom Werner'
p558
S'Prusa_Universality_of_the_2013_CVPR_paper.pdf'
p559
S''
tp560
sI817916423
(I817916423
S'Patch Match Filter: Efficient Edge-Aware Filtering Meets Randomized Search for Fast Correspondence Field Estimation'
p561
S'Jiangbo Lu, Hongsheng Yang, Dongbo Min, Minh N. Do'
p562
S'Lu_Patch_Match_Filter_2013_CVPR_paper.pdf'
p563
S'PatchMatch, nearest-neighbor search, edge-aware image filtering, cost volume filtering, stereo, optical flow'
p564
tp565
sI281671084
(I281671084
S'Correlation Filters for Object Alignment'
p566
S'Vishnu Naresh Boddeti, Takeo Kanade, B.V.K. Vijaya Kumar'
p567
S'Boddeti_Correlation_Filters_for_2013_CVPR_paper.pdf'
p568
S'Correlation Filters, Object Alignment, Car Alignment, Shape Models'
p569
tp570
sI151650830
(I151650830
S'Blind Deconvolution of Widefield Fluorescence Microscopic Data by Regularization of the Optical Transfer Function (OTF)'
p571
S'Margret Keuper, Thorsten Schmidt, Maja Temerinac-Ott, Jan Padeken, Patrick Heun, Olaf Ronneberger, Thomas Brox'
p572
S'Keuper_Blind_Deconvolution_of_2013_CVPR_paper.pdf'
p573
S'blind deconvolution, widefield microscopy, OTF regularization'
p574
tp575
sI705694223
(I705694223
S'Groupwise Registration via Graph Shrinkage on the Image Manifold'
p576
S'Shihui Ying, Guorong Wu, Qian Wang, Dinggang Shen'
p577
S'Ying_Groupwise_Registration_via_2013_CVPR_paper.pdf'
p578
S'Unbiased groupwise registration, graph shrinking, image manifold, diffeomorphism'
p579
tp580
sI155806224
(I155806224
S'Exploring Weak Stabilization for Motion Feature Extraction'
p581
S'Dennis Park, C. Lawrence Zitnick, Deva Ramanan, Piotr Dollr'
p582
S'Park_Exploring_Weak_Stabilization_2013_CVPR_paper.pdf'
p583
S''
tp584
sI634425873
(I634425873
S'A Fast Approximate AIB Algorithm for Distributional Word Clustering'
p585
S'Lei Wang, Jianjia Zhang, Luping Zhou, Wanqing Li'
p586
S'Wang_A_Fast_Approximate_2013_CVPR_paper.pdf'
p587
S'Word clustering, Agglomerative Information Bottleneck, Visual Codebook, Image Recognition'
p588
tp589
sI630286869
(I630286869
S'Image Tag Completion via Image-Specific and Tag-Specific Linear Sparse Reconstructions'
p590
S'Zijia Lin, Guiguang Ding, Mingqing Hu, Jianmin Wang, Xiaojun Ye'
p591
S'Lin_Image_Tag_Completion_2013_CVPR_paper.pdf'
p592
S'image tag completion, linear sparse reconstruction'
p593
tp594
sI122769943
(I122769943
S'Beta Process Joint Dictionary Learning for Coupled Feature Spaces with Application to Single Image Super-Resolution'
p595
S'Li He, Hairong Qi, Russell Zaretzki'
p596
S'He_Beta_Process_Joint_2013_CVPR_paper.pdf'
p597
S'Dictionary Learning, Beta Process, Image Super-Resolution, Coupled Feature Spaces'
p598
tp599
sI540152345
(I540152345
S'Learning for Structured Prediction Using Approximate Subgradient Descent with Working Sets'
p600
S'Aurlien Lucchi, Yunpeng Li, Pascal Fua'
p601
S'Lucchi_Learning_for_Structured_2013_CVPR_paper.pdf'
p602
S'structured prediction, image segmentation, machine learning, computer vision, electron microscopy, subgradient'
p603
tp604
sI559449207
(I559449207
S'Category Modeling from Just a Single Labeling: Use Depth Information to Guide the Learning of 2D Models'
p605
S'Quanshi Zhang, Xuan Song, Xiaowei Shao, Ryosuke Shibasaki, Huijing Zhao'
p606
S'Zhang_Category_Modeling_from_2013_CVPR_paper.pdf'
p607
S'Object detection, Graph matching, RGBD images'
p608
tp609
sI598817309
(I598817309
S'Learning the Change for Automatic Image Cropping'
p610
S'Jianzhou Yan, Stephen Lin, Sing Bing Kang, Xiaoou Tang'
p611
S'Yan_Learning_the_Change_2013_CVPR_paper.pdf'
p612
S'Image cropping'
p613
tp614
sI947948062
(I947948062
S'BRDF Slices: Accurate Adaptive Anisotropic Appearance Acquisition'
p615
S'Jir Filip, Radomr Vvra, Michal Haindl, Pavel id, Mikul Krupika, Vlastimil Havran'
p616
S'Filip_BRDF_Slices_Accurate_2013_CVPR_paper.pdf'
p617
S'BRDF, measurement, adaptive, sampling'
p618
tp619
sI484241953
(I484241953
S'3D Visual Proxemics: Recognizing Human Interactions in 3D from a Single Image'
p620
S'Ishani Chakraborty, Hui Cheng, Omar Javed'
p621
S'Chakraborty_3D_Visual_Proxemics_2013_CVPR_paper.pdf'
p622
S'Visual Proxemics, 3D people layout, semantic constraints, RANSAC'
p623
tp624
sI149142055
(I149142055
S'Online Robust Dictionary Learning'
p625
S'Cewu Lu, Jiaping Shi, Jiaya Jia'
p626
S'Lu_Online_Robust_Dictionary_2013_CVPR_paper.pdf'
p627
S'Online Learning, Robust Statistics, Dictionary Learning'
p628
tp629
sI67158568
(I67158568
S'Learning to Detect Partially Overlapping Instances'
p630
S'Carlos Arteta, Victor Lempitsky, J. Alison Noble, Andrew Zisserman'
p631
S'Arteta_Learning_to_Detect_2013_CVPR_paper.pdf'
p632
S''
tp633
sI696719915
(I696719915
S'Multi-target Tracking by Rank-1 Tensor Approximation'
p634
S'Xinchu Shi, Haibin Ling, Junling Xing, Weiming Hu'
p635
S'Shi_Multi-target_Tracking_by_2013_CVPR_paper.pdf'
p636
S'Multiple target tracking, Rank-1 tensor approximation'
p637
tp638
sI91249197
(I91249197
S'Detecting and Aligning Faces by Image Retrieval'
p639
S'Xiaohui Shen, Zhe Lin, Jonathan Brandt, Ying Wu'
p640
S'Shen_Detecting_and_Aligning_2013_CVPR_paper.pdf'
p641
S''
tp642
sI709407282
(I709407282
S'Rolling Riemannian Manifolds to Solve the Multi-class Classification Problem'
p643
S'Rui Caseiro, Pedro Martins, Joo F. Henriques, Ftima Silva Leite, Jorge Batista'
p644
S'Caseiro_Rolling_Riemannian_Manifolds_2013_CVPR_paper.pdf'
p645
S'Riemannian Manifolds, Rolling motions, Object Classification'
p646
tp647
sI190616120
(I190616120
S'Vantage Feature Frames for Fine-Grained Categorization'
p648
S'Asma Rejeb Sfar, Nozha Boujemaa, Donald Geman'
p649
S'Sfar_Vantage_Feature_Frames_2013_CVPR_paper.pdf'
p650
S''
tp651
sI908188218
(I908188218
S'Watching Unlabeled Video Helps Learn New Human Actions from Very Few Labeled Snapshots'
p652
S'Chao-Yeh Chen, Kristen Grauman'
p653
S'Chen_Watching_Unlabeled_Video_2013_CVPR_paper.pdf'
p654
S''
tp655
sI125844028
(I125844028
S'The Variational Structure of Disparity and Regularization of 4D Light Fields'
p656
S'Bastian Goldluecke, Sven Wanner'
p657
S'Goldluecke_The_Variational_Structure_2013_CVPR_paper.pdf'
p658
S'light field analysis, inverse problems, variational methods'
p659
tp660
sI978973245
(I978973245
S'Efficient Object Detection and Segmentation for Fine-Grained Recognition'
p661
S'Anelia Angelova, Shenghuo Zhu'
p662
S'Angelova_Efficient_Object_Detection_2013_CVPR_paper.pdf'
p663
S'fine-grained categorization, image segmentation, Laplacian propagation'
p664
tp665
sI159728190
(I159728190
S'Hierarchical Video Representation with Trajectory Binary Partition Tree'
p666
S'Guillem Palou, Philippe Salembier'
p667
S'Palou_Hierarchical_Video_Representation_2013_CVPR_paper.pdf'
p668
S''
tp669
sI763101762
(I763101762
S'A New Perspective on Uncalibrated Photometric Stereo'
p670
S'Thoma Papadhimitri, Paolo Favaro'
p671
S'Papadhimitri_A_New_Perspective_2013_CVPR_paper.pdf'
p672
S'Uncalibrated photometric stereo, perspective projection, GBR ambiguity'
p673
tp674
sI833319495
(I833319495
S'A Max-Margin Riffled Independence Model for Image Tag Ranking'
p675
S'Tian Lan, Greg Mori'
p676
S'Lan_A_Max-Margin_Riffled_2013_CVPR_paper.pdf'
p677
S''
tp678
sI699445838
(I699445838
S'Multi-agent Event Detection: Localization and Role Assignment'
p679
S'Suha Kwak, Bohyung Han, Joon Hee Han'
p680
S'Kwak_Multi-agent_Event_Detection_2013_CVPR_paper.pdf'
p681
S'video event detection, activity detection'
p682
tp683
sI54444624
(I54444624
S'Constrained Clustering and Its Application to Face Clustering in Videos'
p684
S'Baoyuan Wu, Yifan Zhang, Bao-Gang Hu, Qiang Ji'
p685
S'Wu_Constrained_Clustering_and_2013_CVPR_paper.pdf'
p686
S''
tp687
sI993272403
(I993272403
S'PISA: Pixelwise Image Saliency by Aggregating Complementary Appearance Contrast Measures with Spatial Priors'
p688
S'Keyang Shi, Keze Wang, Jiangbo Lu, Liang Lin'
p689
S'Shi_PISA_Pixelwise_Image_2013_CVPR_paper.pdf'
p690
S'saliency detection, pixelwise saliency, object detection, image processing'
p691
tp692
sI609952340
(I609952340
S'Stochastic Deconvolution'
p693
S'James Gregson, Felix Heide, Matthias B. Hullin, Mushfiqur Rouf, Wolfgang Heidrich'
p694
S'Gregson_Stochastic_Deconvolution_2013_CVPR_paper.pdf'
p695
S'Deblurring, Deconvolution, Stochastic, Random Walk, Spatially-Varying PSF'
p696
tp697
sI427715157
(I427715157
S'Blocks That Shout: Distinctive Parts for Scene Classification'
p698
S'Mayank Juneja, Andrea Vedaldi, C.V. Jawahar, Andrew Zisserman'
p699
S'Juneja_Blocks_That_Shout_2013_CVPR_paper.pdf'
p700
S'Scene Classification'
p701
tp702
sI319797851
(I319797851
S'Attribute-Based Detection of Unfamiliar Classes with Humans in the Loop'
p703
S'Catherine Wah, Serge Belongie'
p704
S'Wah_Attribute-Based_Detection_of_2013_CVPR_paper.pdf'
p705
S'unfamiliar class detection, attribute-based classification, human in the loop, visual recognition, fine-grained visual categories'
p706
tp707
sI320342625
(I320342625
S'Self-Paced Learning for Long-Term Tracking'
p708
S'James Steven Supani_III, Deva Ramanan'
p709
S'Supancic_III_Self-Paced_Learning_for_2013_CVPR_paper.pdf'
p710
S'tracking, object tracking, self paced learning, learning'
p711
tp712
sI894923878
(I894923878
S'Is There a Procedural Logic to Architecture?'
p713
S'Julien Weissenberg, Hayko Riemenschneider, Mukta Prasad, Luc Van_Gool'
p714
S'Weissenberg_Is_There_a_2013_CVPR_paper.pdf'
p715
S''
tp716
sI610906729
(I610906729
S'Blessing of Dimensionality: High-Dimensional Feature and Its Efficient Compression for Face Verification'
p717
S'Dong Chen, Xudong Cao, Fang Wen, Jian Sun'
p718
S'Chen_Blessing_of_Dimensionality_2013_CVPR_paper.pdf'
p719
S'Face Recognition, High-dimensional LBP, Rotated Sparse Regression'
p720
tp721
sI928217707
(I928217707
S'Discriminative Subspace Clustering'
p722
S'Vasileios Zografos, Liam Ellis, Rudolf Mester'
p723
S'Zografos_Discriminative_Subspace_Clustering_2013_CVPR_paper.pdf'
p724
S'Subspace clustering, Discriminative clustering, quadratic classifier'
p725
tp726
sI448698988
(I448698988
S'Looking Beyond the Image: Unsupervised Learning for Object Saliency and Detection'
p727
S'Parthipan Siva, Chris Russell, Tao Xiang, Lourdes Agapito'
p728
S'Siva_Looking_Beyond_the_2013_CVPR_paper.pdf'
p729
S'Object Saliency, Weakly Supervised Learning, Generic Object Detection'
p730
tp731
sI935580272
(I935580272
S'Integrating Grammar and Segmentation for Human Pose Estimation'
p732
S'Brandon Rothrock, Seyoung Park, Song-Chun Zhu'
p733
S'Rothrock_Integrating_Grammar_and_2013_CVPR_paper.pdf'
p734
S''
tp735
sI262881913
(I262881913
S'Discriminative Non-blind Deblurring'
p736
S'Uwe Schmidt, Carsten Rother, Sebastian Nowozin, Jeremy Jancsary, Stefan Roth'
p737
S'Schmidt_Discriminative_Non-blind_Deblurring_2013_CVPR_paper.pdf'
p738
S''
tp739
sI793072259
(I793072259
S'Depth Super Resolution by Rigid Body Self-Similarity in 3D'
p740
S'Michael Hornek, Christoph Rhemann, Margrit Gelautz, Carsten Rother'
p741
S'Hornacek_Depth_Super_Resolution_2013_CVPR_paper.pdf'
p742
S'depth super resolution, dense matching, optimization'
p743
tp744
sI960631430
(I960631430
S'Video Enhancement of People Wearing Polarized Glasses: Darkening Reversal and Reflection Reduction'
p745
S'Mao Ye, Cha Zhang, Ruigang Yang'
p746
S'Ye_Video_Enhancement_of_2013_CVPR_paper.pdf'
p747
S'Reflection Reduction, 3D Videoconferencing'
p748
tp749
sI259103368
(I259103368
S'Pattern-Driven Colorization of 3D Surfaces'
p750
S'George Leifman, Ayellet Tal'
p751
S'Leifman_Pattern-Driven_Colorization_of_2013_CVPR_paper.pdf'
p752
S''
tp753
sI536685196
(I536685196
S'Tensor-Based High-Order Semantic Relation Transfer for Semantic Scene Segmentation'
p754
S'Heesoo Myeong, Kyoung Mu Lee'
p755
S'Myeong_Tensor-Based_High-Order_Semantic_2013_CVPR_paper.pdf'
p756
S''
tp757
sI212050573
(I212050573
S'Enriching Texture Analysis with Semantic Data'
p758
S'Tim Matthews, Mark S. Nixon, Mahesan Niranjan'
p759
S'Matthews_Enriching_Texture_Analysis_2013_CVPR_paper.pdf'
p760
S'texture, semantics'
p761
tp762
sI339997329
(I339997329
S'Continuous Inference in Graphical Models with Polynomial Energies'
p763
S'Mathieu Salzmann'
p764
S'Salzmann_Continuous_Inference_in_2013_CVPR_paper.pdf'
p765
S''
tp766
sI60543637
(I60543637
S'Graph Matching with Anchor Nodes: A Learning Approach'
p767
S'Nan Hu, Raif M. Rustamov, Leonidas Guibas'
p768
S'Hu_Graph_Matching_with_2013_CVPR_paper.pdf'
p769
S''
tp770
sI202326680
(I202326680
S'Semi-supervised Learning with Constraints for Person Identification in Multimedia Data'
p771
S'Martin Buml, Makarand Tapaswi, Rainer Stiefelhagen'
p772
S'Bauml_Semi-supervised_Learning_with_2013_CVPR_paper.pdf'
p773
S''
tp774
sI241048219
(I241048219
S'Cross-View Image Geolocalization'
p775
S'Tsung-Yi Lin, Serge Belongie, James Hays'
p776
S'Lin_Cross-View_Image_Geolocalization_2013_CVPR_paper.pdf'
p777
S''
tp778
sI801200807
(I801200807
S'Graph-Laplacian PCA: Closed-Form Solution and Robustness'
p779
S'Bo Jiang, Chris Ding, Bio Luo, Jin Tang'
p780
S'Jiang_Graph-Laplacian_PCA_Closed-Form_2013_CVPR_paper.pdf'
p781
S'PCA, graph, Laplacian, robustness'
p782
tp783
sI408025771
(I408025771
S'Multi-resolution Shape Analysis via Non-Euclidean Wavelets: Applications to Mesh Segmentation and Surface Alignment Problems'
p784
S'Won Hwa Kim, Moo K. Chung, Vikas Singh'
p785
S'Kim_Multi-resolution_Shape_Analysis_2013_CVPR_paper.pdf'
p786
S''
tp787
sI531020462
(I531020462
S'Structured Face Hallucination'
p788
S'Chih-Yuan Yang, Sifei Liu, Ming-Hsuan Yang'
p789
S'Yang_Structured_Face_Hallucination_2013_CVPR_paper.pdf'
p790
S'structured face hallucination landmarks localizatio'
p791
tp792
sI217510575
(I217510575
S'Supervised Semantic Gradient Extraction Using Linear-Time Optimization'
p793
S'Shulin (Lynn) Yang, Jue Wang, Linda Shapiro'
p794
S'Yang_Supervised_Semantic_Gradient_2013_CVPR_paper.pdf'
p795
S''
tp796
sI582122160
(I582122160
S'Story-Driven Summarization for Egocentric Video'
p797
S'Zheng Lu, Kristen Grauman'
p798
S'Lu_Story-Driven_Summarization_for_2013_CVPR_paper.pdf'
p799
S'video summarization, egocentric, story'
p800
tp801
sI127253171
(I127253171
S'Sample-Specific Late Fusion for Visual Category Recognition'
p802
S'Dong Liu, Kuan-Ting Lai, Guangnan Ye, Ming-Syan Chen, Shih-Fu Chang'
p803
S'Liu_Sample-Specific_Late_Fusion_2013_CVPR_paper.pdf'
p804
S'late fusion, ranking, infinite push, graph'
p805
tp806
sI767449786
(I767449786
S'Specular Reflection Separation Using Dark Channel Prior'
p807
S'Hyeongwoo Kim, Hailin Jin, Sunil Hadap, Inso Kweon'
p808
S'Kim_Specular_Reflection_Separation_2013_CVPR_paper.pdf'
p809
S''
tp810
sI250755773
(I250755773
S'Poselet Conditioned Pictorial Structures'
p811
S'Leonid Pishchulin, Mykhaylo Andriluka, Peter Gehler, Bernt Schiele'
p812
S'Pishchulin_Poselet_Conditioned_Pictorial_2013_CVPR_paper.pdf'
p813
S'pictorial structures, articulated pose estimation, part-based models, poselets'
p814
tp815
sI299504325
(I299504325
S"Decoding Children's Social Behavior"
p816
S'James M. Rehg, Gregory D. Abowd, Agata Rozga, Mario Romero, Mark A. Clements, Stan Sclaroff, Irfan Essa, Opal Y. Ousley, Yin Li, Chanho Kim, Hrishikesh Rao, Jonathan C. Kim, Liliana Lo Presti, Jianming Zhang, Denis Lantsman, Jonathan Bidwell, Zhefan Ye'
p817
S'Rehg_Decoding_Childrens_Social_2013_CVPR_paper.pdf'
p818
S''
tp819
sI419017164
(I419017164
S'Histograms of Sparse Codes for Object Detection'
p820
S'Xiaofeng Ren, Deva Ramanan'
p821
S'Ren_Histograms_of_Sparse_2013_CVPR_paper.pdf'
p822
S'Object Detection, Sparse Coding, Feature Learning, Supervised Training'
p823
tp824
sI776045259
(I776045259
S'Underwater Camera Calibration Using Wavelength Triangulation'
p825
S'Timothy Yau, Minglun Gong, Yee-Hong Yang'
p826
S'Yau_Underwater_Camera_Calibration_2013_CVPR_paper.pdf'
p827
S''
tp828
sI333216460
(I333216460
S'Multi-view Photometric Stereo with Spatially Varying Isotropic Materials'
p829
S'Zhenglong Zhou, Zhe Wu, Ping Tan'
p830
S'Zhou_Multi-view_Photometric_Stereo_2013_CVPR_paper.pdf'
p831
S''
tp832
sI86495962
(I86495962
S'Learning Cross-Domain Information Transfer for Location Recognition and Clustering'
p833
S'Raghuraman Gopalan'
p834
S'Gopalan_Learning_Cross-Domain_Information_2013_CVPR_paper.pdf'
p835
S''
tp836
sI871138428
(I871138428
S'Saliency Detection via Graph-Based Manifold Ranking'
p837
S'Chuan Yang, Lihe Zhang, Huchuan Lu, Xiang Ruan, Ming-Hsuan Yang'
p838
S'Yang_Saliency_Detection_via_2013_CVPR_paper.pdf'
p839
S''
tp840
sI502426355
(I502426355
S'Sketch Tokens: A Learned Mid-level Representation for Contour and Object Detection'
p841
S'Joseph J. Lim, C. Lawrence Zitnick, Piotr Dollr'
p842
S'Lim_Sketch_Tokens_A_2013_CVPR_paper.pdf'
p843
S''
tp844
sI645923578
(I645923578
S'Optical Flow Estimation Using Laplacian Mesh Energy'
p845
S'Wenbin Li, Darren Cosker, Matthew Brown, Rui Tang'
p846
S'Li_Optical_Flow_Estimation_2013_CVPR_paper.pdf'
p847
S'Optical Flow, Laplacian Mesh'
p848
tp849
sI623447167
(I623447167
S'Hierarchical Saliency Detection'
p850
S'Qiong Yan, Li Xu, Jianping Shi, Jiaya Jia'
p851
S'Yan_Hierarchical_Saliency_Detection_2013_CVPR_paper.pdf'
p852
S'saliency detection'
p853
tp854
sI909898497
(I909898497
S'Image Segmentation by Cascaded Region Agglomeration'
p855
S'Zhile Ren, Gregory Shakhnarovich'
p856
S'Ren_Image_Segmentation_by_2013_CVPR_paper.pdf'
p857
S'Image segmentation, superpixels, boundary detection, edge detection, cascade'
p858
tp859
sI672590602
(I672590602
S'Fast Trust Region for Segmentation'
p860
S'Lena Gorelick, Frank R. Schmidt, Yuri Boykov'
p861
S'Gorelick_Fast_Trust_Region_2013_CVPR_paper.pdf'
p862
S'Segmentation, High-order Energies, Optimization, Trust Region'
p863
tp864
sI624681758
(I624681758
S'Pedestrian Detection with Unsupervised Multi-stage Feature Learning'
p865
S'Pierre Sermanet, Koray Kavukcuoglu, Soumith Chintala, Yann Lecun'
p866
S'Sermanet_Pedestrian_Detection_with_2013_CVPR_paper.pdf'
p867
S'deep learning, computer vision, pedestrian, detection, unsupervised, convolutional'
p868
tp869
sI783624994
(I783624994
S'Understanding Bayesian Rooms Using Composite 3D Object Models'
p870
S'Luca Del_Pero, Joshua Bowdish, Bonnie Kermgard, Emily Hartley, Kobus Barnard'
p871
S'Del_Pero_Understanding_Bayesian_Rooms_2013_CVPR_paper.pdf'
p872
S'Scene understanding, Indoor scenes, Object Recognition, Bayesian modeling and inference'
p873
tp874
sI997956389
(I997956389
S'Jointly Aligning and Segmenting Multiple Web Photo Streams for the Inference of Collective Photo Storylines'
p875
S'Gunhee Kim, Eric P. Xing'
p876
S'Kim_Jointly_Aligning_and_2013_CVPR_paper.pdf'
p877
S'Large-scale image alignment, Image cosegmentation, Photo-based storyline reconstruction'
p878
tp879
sI473666346
(I473666346
S'Kernel Null Space Methods for Novelty Detection'
p880
S'Paul Bodesheim, Alexander Freytag, Erik Rodner, Michael Kemmler, Joachim Denzler'
p881
S'Bodesheim_Kernel_Null_Space_2013_CVPR_paper.pdf'
p882
S'novelty detection, null space, multi-class modeling, subspace methods, kernel methods'
p883
tp884
sI532534061
(I532534061
S'Discriminative Sub-categorization'
p885
S'Minh Hoai, Andrew Zisserman'
p886
S'Hoai_Discriminative_Sub-categorization_2013_CVPR_paper.pdf'
p887
S''
tp888
sI817767214
(I817767214
S'Cloud Motion as a Calibration Cue'
p889
S'Nathan Jacobs, Mohammad T. Islam, Scott Workman'
p890
S'Jacobs_Cloud_Motion_as_2013_CVPR_paper.pdf'
p891
S'calibration, webcam, vanishing point, motion'
p892
tp893
sI431471413
(I431471413
S'Better Exploiting Motion for Better Action Recognition'
p894
S'Mihir Jain, Herv Jgou, Patrick Bouthemy'
p895
S'Jain_Better_Exploiting_Motion_2013_CVPR_paper.pdf'
p896
S'action recognition, motion compensation, affine motion, kinematic features, VLAD'
p897
tp898
sI81978169
(I81978169
S'Optimized Pedestrian Detection for Multiple and Occluded People'
p899
S'Sitapa Rujikietgumjorn, Robert T. Collins'
p900
S'Rujikietgumjorn_Optimized_Pedestrian_Detection_2013_CVPR_paper.pdf'
p901
S''
tp902
sI295752506
(I295752506
S'Improving the Visual Comprehension of Point Sets'
p903
S'Sagi Katz, Ayellet Tal'
p904
S'Katz_Improving_the_Visual_2013_CVPR_paper.pdf'
p905
S''
tp906
sI63236939
(I63236939
S'Structure Preserving Object Tracking'
p907
S'Lu Zhang, Laurens van_der_Maaten'
p908
S'Zhang_Structure_Preserving_Object_2013_CVPR_paper.pdf'
p909
S''
tp910
sI774353491
(I774353491
S'Online Object Tracking: A Benchmark'
p911
S'Yi Wu, Jongwoo Lim, Ming-Hsuan Yang'
p912
S'Wu_Online_Object_Tracking_2013_CVPR_paper.pdf'
p913
S''
tp914
sI184695636
(I184695636
S'Recognize Human Activities from Partially Observed Videos'
p915
S'Yu Cao, Daniel Barrett, Andrei Barbu, Siddharth Narayanaswamy, Haonan Yu, Aaron Michaux, Yuewei Lin, Sven Dickinson, Jeffrey Mark Siskind, Song Wang'
p916
S'Cao_Recognize_Human_Activities_2013_CVPR_paper.pdf'
p917
S''
tp918
sI567280472
(I567280472
S'Learning by Associating Ambiguously Labeled Images'
p919
S'Zinan Zeng, Shijie Xiao, Kui Jia, Tsung-Han Chan, Shenghua Gao, Dong Xu, Yi Ma'
p920
S'Zeng_Learning_by_Associating_2013_CVPR_paper.pdf'
p921
S'weakly supervised learning, low rank, partial permutation matrix'
p922
tp923
sI166046566
(I166046566
S'Separable Dictionary Learning'
p924
S'Simon Hawe, Matthias Seibert, Martin Kleinsteuber'
p925
S'Hawe_Separable_Dictionary_Learning_2013_CVPR_paper.pdf'
p926
S''
tp927
sI582014440
(I582014440
S'Dynamic Scene Classification: Learning Motion Descriptors with Slow Features Analysis'
p928
S'Christian Thriault, Nicolas Thome, Matthieu Cord'
p929
S'Theriault_Dynamic_Scene_Classification_2013_CVPR_paper.pdf'
p930
S'Video classification, Motion descriptors, Unsupervised learning, Slow Feature Analysis'
p931
tp932
sI480986602
(I480986602
S"A Lazy Man's Approach to Benchmarking: Semisupervised Classifier Evaluation and Recalibration"
p933
S'Peter Welinder, Max Welling, Pietro Perona'
p934
S'Welinder_A_Lazy_Mans_2013_CVPR_paper.pdf'
p935
S''
tp936
sI960150398
(I960150398
S'Unconstrained Monocular 3D Human Pose Estimation by Action Detection and Cross-Modality Regression Forest'
p937
S'Tsz-Ho Yu, Tae-Kyun Kim, Roberto Cipolla'
p938
S'Yu_Unconstrained_Monocular_3D_2013_CVPR_paper.pdf'
p939
S'Human Pose Estimation, Random Forest, Hough Forest, Regression Forest'
p940
tp941
sI496690047
(I496690047
S'Action Recognition by Hierarchical Sequence Summarization'
p942
S'Yale Song, Louis-Philippe Morency, Randall Davis'
p943
S'Song_Action_Recognition_by_2013_CVPR_paper.pdf'
p944
S'Action Recognition, Hierarchical Model, Conditional Random Fields'
p945
tp946
sI406406021
(I406406021
S'The Generalized Laplacian Distance and Its Applications for Visual Matching'
p947
S'Elhanan Elboer, Michael Werman, Yacov Hel-Or'
p948
S'Elboer_The_Generalized_Laplacian_2013_CVPR_paper.pdf'
p949
S'graph Laplacian, template matching'
p950
tp951
sI32066450
(I32066450
S'Towards Pose Robust Face Recognition'
p952
S'Dong Yi, Zhen Lei, Stan Z. Li'
p953
S'Yi_Towards_Pose_Robust_2013_CVPR_paper.pdf'
p954
S''
tp955
sI413985685
(I413985685
S'Dense Reconstruction Using 3D Object Shape Priors'
p956
S'Amaury Dame, Victor A. Prisacariu, Carl Y. Ren, Ian Reid'
p957
S'Dame_Dense_Reconstruction_Using_2013_CVPR_paper.pdf'
p958
S'SLAM, Dense reconstruction, shape prior'
p959
tp960
sI416299933
(I416299933
S'Boundary Cues for 3D Object Shape Recovery'
p961
S'Kevin Karsch, Zicheng Liao, Jason Rock, Jonathan T. Barron, Derek Hoiem'
p962
S'Karsch_Boundary_Cues_for_2013_CVPR_paper.pdf'
p963
S''
tp964
sI193354660
(I193354660
S'Learning Structured Hough Voting for Joint Object Detection and Occlusion Reasoning'
p965
S'Tao Wang, Xuming He, Nick Barnes'
p966
S'Wang_Learning_Structured_Hough_2013_CVPR_paper.pdf'
p967
S'structured Hough voting, object detection, occlusion reasoning, depth-encoded object-context model'
p968
tp969
sI414127014
(I414127014
S'What Makes a Patch Distinct?'
p970
S'Ran Margolin, Ayellet Tal, Lihi Zelnik-Manor'
p971
S'Margolin_What_Makes_a_2013_CVPR_paper.pdf'
p972
S'saliency, distinctness, salient object'
p973
tp974
sI504566696
(I504566696
S'Joint Detection, Tracking and Mapping by Semantic Bundle Adjustment'
p975
S'Nicola Fioraio, Luigi Di_Stefano'
p976
S'Fioraio_Joint_Detection_Tracking_2013_CVPR_paper.pdf'
p977
S'Semantic SLAM, Bundle Adjustment, 3D Object Detection, SLAM'
p978
tp979
sI623123369
(I623123369
S'Sampling Strategies for Real-Time Action Recognition'
p980
S'Feng Shi, Emil Petriu, Robert Laganire'
p981
S'Shi_Sampling_Strategies_for_2013_CVPR_paper.pdf'
p982
S''
tp983
sI447431599
(I447431599
S'Fusing Robust Face Region Descriptors via Multiple Metric Learning for Face Recognition in the Wild'
p984
S'Zhen Cui, Wen Li, Dong Xu, Shiguang Shan, Xilin Chen'
p985
S'Cui_Fusing_Robust_Face_2013_CVPR_paper.pdf'
p986
S''
tp987
sI291455920
(I291455920
S'Learning Structured Low-Rank Representations for Image Classification'
p988
S'Yangmuzi Zhang, Zhuolin Jiang, Larry S. Davis'
p989
S'Zhang_Learning_Structured_Low-Rank_2013_CVPR_paper.pdf'
p990
S'dictionary learning, low-rank representation, image classification'
p991
tp992
sI635544512
(I635544512
S'Shape from Silhouette Probability Maps: Reconstruction of Thin Objects in the Presence of Silhouette Extraction and Calibration Error'
p993
S'Amy Tabb'
p994
S'Tabb_Shape_from_Silhouette_2013_CVPR_paper.pdf'
p995
S'shape from silhouette, trees, 3D reconstruction'
p996
tp997
sI994200518
(I994200518
S'Fast Object Detection with Entropy-Driven Evaluation'
p998
S'Raphael Sznitman, Carlos Becker, Franois Fleuret, Pascal Fua'
p999
S'Sznitman_Fast_Object_Detection_2013_CVPR_paper.pdf'
p1000
S'Efficient Classifier Evaluation, Object Detection, Ensemble Classifier, Computer Vision'
p1001
tp1002
sI692384712
(I692384712
S'Dense Non-rigid Point-Matching Using Random Projections'
p1003
S'Raffay Hamid, Dennis Decoste, Chih-Jen Lin'
p1004
S'Hamid_Dense_Non-rigid_Point-Matching_2013_CVPR_paper.pdf'
p1005
S'Manifold Learning, Dense Point-Matching, Point-Matching, Non-Rigid Point-Matching, Random Projections'
p1006
tp1007
sI314651127
(I314651127
S'Single-Sample Face Recognition with Image Corruption and Misalignment via Sparse Illumination Transfer'
p1008
S'Liansheng Zhuang, Allen Y. Yang, Zihan Zhou, S. Shankar Sastry, Yi Ma'
p1009
S'Zhuang_Single-Sample_Face_Recognition_2013_CVPR_paper.pdf'
p1010
S'Single-sample face recognition, sparse representation, image corruption, face alignment'
p1011
tp1012
sI60672973
(I60672973
S'Boundary Detection Benchmarking: Beyond F-Measures'
p1013
S'Xiaodi Hou, Alan Yuille, Christof Koch'
p1014
S'Hou_Boundary_Detection_Benchmarking_2013_CVPR_paper.pdf'
p1015
S'Boundary detection, benchmarking, dataset bias'
p1016
tp1017
sI666565586
(I666565586
S'Joint Geodesic Upsampling of Depth Images'
p1018
S'Ming-Yu Liu, Oncel Tuzel, Yuichi Taguchi'
p1019
S'Liu_Joint_Geodesic_Upsampling_2013_CVPR_paper.pdf'
p1020
S'depth, upsampling, geodesic, filtering'
p1021
tp1022
sI361616342
(I361616342
S'Megastereo: Constructing High-Resolution Stereo Panoramas'
p1023
S'Christian Richardt, Yael Pritch, Henning Zimmer, Alexander Sorkine-Hornung'
p1024
S'Richardt_Megastereo_Constructing_High-Resolution_2013_CVPR_paper.pdf'
p1025
S''
tp1026
sI55378908
(I55378908
S'Ensemble Video Object Cut in Highly Dynamic Scenes'
p1027
S'Xiaobo Ren, Tony X. Han, Zhihai He'
p1028
S'Ren_Ensemble_Video_Object_2013_CVPR_paper.pdf'
p1029
S''
tp1030
sI678757342
(I678757342
S'Recognizing Activities via Bag of Words for Attribute Dynamics'
p1031
S'Weixin Li, Qian Yu, Harpreet Sawhney, Nuno Vasconcelos'
p1032
S'Li_Recognizing_Activities_via_2013_CVPR_paper.pdf'
p1033
S'bag-of-words, attribute, dynamics, activity recognition'
p1034
tp1035
sI136471522
(I136471522
S'Efficient 3D Endfiring TRUS Prostate Segmentation with Globally Optimized Rotational Symmetry'
p1036
S'Jing Yuan, Wu Qiu, Eranga Ukwatta, Martin Rajchl, Xue-Cheng Tai, Aaron Fenster'
p1037
S'Yuan_Efficient_3D_Endfiring_2013_CVPR_paper.pdf'
p1038
S'Image Segmentation, Convex Optimization, Continuous Max-Flow, 3D TRUS'
p1039
tp1040
sI454722538
(I454722538
S'Kernel Learning for Extrinsic Classification of Manifold Features'
p1041
S'Raviteja Vemulapalli, Jaishanker K. Pillai, Rama Chellappa'
p1042
S'Vemulapalli_Kernel_Learning_for_2013_CVPR_paper.pdf'
p1043
S'Kernel Learning, Riemannian Manifolds, Extrinsic Classification, Grassmann Kernels'
p1044
tp1045
sI811286695
(I811286695
S'Hypergraphs for Joint Multi-view Reconstruction and Multi-object Tracking'
p1046
S'Martin Hofmann, Daniel Wolf, Gerhard Rigoll'
p1047
S'Hofmann_Hypergraphs_for_Joint_2013_CVPR_paper.pdf'
p1048
S'multi-view, multi-object, tracking, hypergraphs, surveillance'
p1049
tp1050
sI90002412
(I90002412
S'Poselet Key-Framing: A Model for Human Activity Recognition'
p1051
S'Michalis Raptis, Leonid Sigal'
p1052
S'Raptis_Poselet_Key-Framing_A_2013_CVPR_paper.pdf'
p1053
S'Activity Recognition, Discriminative Keyframes, Video Analysis'
p1054
tp1055
sI929758190
(I929758190
S'Event Recognition in Videos by Learning from Heterogeneous Web Sources'
p1056
S'Lin Chen, Lixin Duan, Dong Xu'
p1057
S'Chen_Event_Recognition_in_2013_CVPR_paper.pdf'
p1058
S'Domain Adaptation, Event Recognition'
p1059
tp1060
sI172418089
(I172418089
S'Learning Video Saliency from Human Gaze Using Candidate Selection'
p1061
S'Dmitry Rudoy, Dan B. Goldman, Eli Shechtman, Lihi Zelnik-Manor'
p1062
S'Rudoy_Learning_Video_Saliency_2013_CVPR_paper.pdf'
p1063
S''
tp1064
sI490152953
(I490152953
S'Bringing Semantics into Focus Using Visual Abstraction'
p1065
S'C. Lawrence Zitnick, Devi Parikh'
p1066
S'Zitnick_Bringing_Semantics_into_2013_CVPR_paper.pdf'
p1067
S'semantic understanding, abstract scenes'
p1068
tp1069
sI348324858
(I348324858
S'Fine-Grained Crowdsourcing for Fine-Grained Recognition'
p1070
S'Jia Deng, Jonathan Krause, Li Fei-Fei'
p1071
S'Deng_Fine-Grained_Crowdsourcing_for_2013_CVPR_paper.pdf'
p1072
S''
tp1073
sI541305855
(I541305855
S'Robust Object Co-detection'
p1074
S'Xin Guo, Dong Liu, Brendan Jou, Mojun Zhu, Anni Cai, Shih-Fu Chang'
p1075
S'Guo_Robust_Object_Co-detection_2013_CVPR_paper.pdf'
p1076
S''
tp1077
sI758803052
(I758803052
S'Binary Code Ranking with Weighted Hamming Distance'
p1078
S'Lei Zhang, Yongdong Zhang, Jinhu Tang, Ke Lu, Qi Tian'
p1079
S'Zhang_Binary_Code_Ranking_2013_CVPR_paper.pdf'
p1080
S'binary hashing, weighted Hamming distance, data-adaptive and query-sensitive weighting'
p1081
tp1082
sI789056520
(I789056520
S'Tracking Human Pose by Tracking Symmetric Parts'
p1083
S'Varun Ramakrishna, Takeo Kanade, Yaser Sheikh'
p1084
S'Ramakrishna_Tracking_Human_Pose_2013_CVPR_paper.pdf'
p1085
S'human pose estimation, multi-target tracking, symmetric parts, mutual exclusion constraints, occlusion reasoning'
p1086
tp1087
sI36983829
(I36983829
S'Deep Convolutional Network Cascade for Facial Point Detection'
p1088
S'Yi Sun, Xiaogang Wang, Xiaoou Tang'
p1089
S'Sun_Deep_Convolutional_Network_2013_CVPR_paper.pdf'
p1090
S'Convolutional Network, Facial Point Detection'
p1091
tp1092
sI576838678
(I576838678
S'Robust Feature Matching with Alternate Hough and Inverted Hough Transforms'
p1093
S'Hsin-Yi Chen, Yen-Yu Lin, Bing-Yu Chen'
p1094
S'Chen_Robust_Feature_Matching_2013_CVPR_paper.pdf'
p1095
S'point matching, correspondence enrichment, Hough transform'
p1096
tp1097
sI963896343
(I963896343
S'Constraints as Features'
p1098
S'Shmuel Asafi, Daniel Cohen-Or'
p1099
S'Asafi_Constraints_as_Features_2013_CVPR_paper.pdf'
p1100
S'clustering, semi-supervised, machine learning, image segmentation'
p1101
tp1102
sI956148766
(I956148766
S'Radial Distortion Self-Calibration'
p1103
S'Jos Henrique Brito, Roland Angst, Kevin Kser, Marc Pollefeys'
p1104
S'Brito_Radial_Distortion_Self-Calibration_2013_CVPR_paper.pdf'
p1105
S'Radial Distortion, Self-calibration, Center of Distortion, Epipolar Curve'
p1106
tp1107
sI860996640
(I860996640
S'Adding Unlabeled Samples to Categories by Learned Attributes'
p1108
S'Jonghyun Choi, Mohammad Rastegari, Ali Farhadi, Larry S. Davis'
p1109
S'Choi_Adding_Unlabeled_Samples_2013_CVPR_paper.pdf'
p1110
S''
tp1111
sI584467491
(I584467491
S'Human Pose Estimation Using Body Parts Dependent Joint Regressors'
p1112
S'Matthias Dantone, Juergen Gall, Christian Leistner, Luc Van_Gool'
p1113
S'Dantone_Human_Pose_Estimation_2013_CVPR_paper.pdf'
p1114
S'human pose estimation, random forest, joint regressor'
p1115
tp1116
sI28148777
(I28148777
S'Expressive Visual Text-to-Speech Using Active Appearance Models'
p1117
S'Robert Anderson, Bjrn Stenger, Vincent Wan, Roberto Cipolla'
p1118
S'Anderson_Expressive_Visual_Text-to-Speech_2013_CVPR_paper.pdf'
p1119
S''
tp1120
sI187888683
(I187888683
S'Dense 3D Reconstruction from Severely Blurred Images Using a Single Moving Camera'
p1121
S'Hee Seok Lee, Kuoung Mu Lee'
p1122
S'Lee_Dense_3D_Reconstruction_2013_CVPR_paper.pdf'
p1123
S'Dense 3D reconstruction, Image deblurring, Visual SLAM'
p1124
tp1125
sI593716272
(I593716272
S'On a Link Between Kernel Mean Maps and Fraunhofer Diffraction, with an Application to Super-Resolution Beyond the Diffraction Limit'
p1126
S'Stefan Harmeling, Michael Hirsch, Bernhard Schlkopf'
p1127
S'Harmeling_On_a_Link_2013_CVPR_paper.pdf'
p1128
S''
tp1129
sI905954356
(I905954356
S'HON4D: Histogram of Oriented 4D Normals for Activity Recognition from Depth Sequences'
p1130
S'Omar Oreifej, Zicheng Liu'
p1131
S'Oreifej_HON4D_Histogram_of_2013_CVPR_paper.pdf'
p1132
S'Activity Recognition, Kinect, Action Recognition, Histogram of Gradients, HOG, Histogram of Normals, HON, 4D Normals, Polychoron, MSR Action 3D, MSR Action Pairs, MSR Daily Activity, Depth, Shape, 4D, 3D'
p1133
tp1134
sI864934967
(I864934967
S'Efficient Large-Scale Structured Learning'
p1135
S'Steve Branson, Oscar Beijbom, Serge Belongie'
p1136
S'Branson_Efficient_Large-Scale_Structured_2013_CVPR_paper.pdf'
p1137
S'structured learning, deformable part models, cost-sensitive SVM, object detection, optimization, sub-gradient'
p1138
tp1139
sI250981438
(I250981438
S'Diffusion Processes for Retrieval Revisited'
p1140
S'Michael Donoser, Horst Bischof'
p1141
S'Donoser_Diffusion_Processes_for_2013_CVPR_paper.pdf'
p1142
S'Retrieval, Diffusion Processes, Random Walk, MPEG7'
p1143
tp1144
sI489337922
(I489337922
S'Learning Binary Codes for High-Dimensional Data Using Bilinear Projections'
p1145
S'Yunchao Gong, Sanjiv Kumar, Henry A. Rowley, Svetlana Lazebnik'
p1146
S'Gong_Learning_Binary_Codes_2013_CVPR_paper.pdf'
p1147
S'recognition, image feature, binary codes, hashing'
p1148
tp1149
sI442700870
(I442700870
S'Explicit Occlusion Modeling for 3D Object Class Representations'
p1150
S'M. Zeeshan Zia, Michael Stark, Konrad Schindler'
p1151
S'Zia_Explicit_Occlusion_Modeling_2013_CVPR_paper.pdf'
p1152
S'Occlusion, Occluder, 3D representation, recognition, single image 3D reconstruction, scene understanding, occlusion invariance'
p1153
tp1154
sI477725776
(I477725776
S'Harvesting Mid-level Visual Concepts from Large-Scale Internet Images'
p1155
S'Quannan Li, Jiajun Wu, Zhuowen Tu'
p1156
S'Li_Harvesting_Mid-level_Visual_2013_CVPR_paper.pdf'
p1157
S''
tp1158
sI330368084
(I330368084
S'Representing Videos Using Mid-level Discriminative Patches'
p1159
S'Arpit Jain, Abhinav Gupta, Mikel Rodriguez, Larry S. Davis'
p1160
S'Jain_Representing_Videos_Using_2013_CVPR_paper.pdf'
p1161
S'Action Recognition, Video Understanding'
p1162
tp1163
sI654529621
(I654529621
S'Fast Multiple-Part Based Object Detection Using KD-Ferns'
p1164
S'Dan Levi, Shai Silberstein, Aharon Bar-Hillel'
p1165
S'Levi_Fast_Multiple-Part_Based_2013_CVPR_paper.pdf'
p1166
S'Part-based recognition, Object Detection, Person detection, Pedestrian detection'
p1167
tp1168
sI944585820
(I944585820
S'Heterogeneous Visual Features Fusion via Sparse Multimodal Machine'
p1169
S'Hua Wang, Feiping Nie, Heng Huang, Chris Ding'
p1170
S'Wang_Heterogeneous_Visual_Features_2013_CVPR_paper.pdf'
p1171
S'Visual Features Fusion, Data Integration, Structured Sparsity'
p1172
tp1173
sI947592289
(I947592289
S'Probabilistic Graphlet Cut: Exploiting Spatial Structure Cue for Weakly Supervised Image Segmentation'
p1174
S'Luming Zhang, Mingli Song, Zicheng Liu, Xiao Liu, Jiajun Bu, Chun Chen'
p1175
S'Zhang_Probabilistic_Graphlet_Cut_2013_CVPR_paper.pdf'
p1176
S'graphlet, weakly segmentation, high-order'
p1177
tp1178
sI894991547
(I894991547
S'3D-Based Reasoning with Blocks, Support, and Stability'
p1179
S'Zhaoyin Jia, Andrew Gallagher, Ashutosh Saxena, Tsuhan Chen'
p1180
S'Jia_3D-Based_Reasoning_with_2013_CVPR_paper.pdf'
p1181
S''
tp1182
sI129422438
(I129422438
S'Deformable Spatial Pyramid Matching for Fast Dense Correspondences'
p1183
S'Jaechul Kim, Ce Liu, Fei Sha, Kristen Grauman'
p1184
S'Kim_Deformable_Spatial_Pyramid_2013_CVPR_paper.pdf'
p1185
S''
tp1186
sI906949137
(I906949137
S'Plane-Based Content Preserving Warps for Video Stabilization'
p1187
S'Zihan Zhou, Hailin Jin, Yi Ma'
p1188
S'Zhou_Plane-Based_Content_Preserving_2013_CVPR_paper.pdf'
p1189
S''
tp1190
sI881798249
(I881798249
S'All About VLAD'
p1191
S'Relja Arandjelovi, Andrew Zisserman'
p1192
S'Arandjelovic_All_About_VLAD_2013_CVPR_paper.pdf'
p1193
S''
tp1194
sI514116716
(I514116716
S'Dense Variational Reconstruction of Non-rigid Surfaces from Monocular Video'
p1195
S'Ravi Garg, Anastasios Roussos, Lourdes Agapito'
p1196
S'Garg_Dense_Variational_Reconstruction_2013_CVPR_paper.pdf'
p1197
S'non-rigid structure from motion, structure from motion, 3D reconstruction'
p1198
tp1199
sI978832501
(I978832501
S'Studying Relationships between Human Gaze, Description, and Computer Vision'
p1200
S'Kiwon Yun, Yifan Peng, Dimitris Samaras, Gregory J. Zelinsky, Tamara L. Berg'
p1201
S'Yun_Studying_Relationships_between_2013_CVPR_paper.pdf'
p1202
S''
tp1203
sI545188982
(I545188982
S'Learning SURF Cascade for Fast and Accurate Object Detection'
p1204
S'Jianguo Li, Yimin Zhang'
p1205
S'Li_Learning_SURF_Cascade_2013_CVPR_paper.pdf'
p1206
S''
tp1207
sI837758071
(I837758071
S'Long-Term Occupancy Analysis Using Graph-Based Optimisation in Thermal Imagery'
p1208
S'Rikke Gade, Anders Jrgensen, Thomas B. Moeslund'
p1209
S'Gade_Long-Term_Occupancy_Analysis_2013_CVPR_paper.pdf'
p1210
S''
tp1211
sI938580159
(I938580159
S'Sparse Quantization for Patch Description'
p1212
S'Xavier Boix, Michael Gygli, Gemma Roig, Luc Van_Gool'
p1213
S'Boix_Sparse_Quantization_for_2013_CVPR_paper.pdf'
p1214
S'sparse quantization, patch descriptor'
p1215
tp1216
sI298015868
(I298015868
S'Pose from Flow and Flow from Pose'
p1217
S'Katerina Fragkiadaki, Han Hu, Jianbo Shi'
p1218
S'Fragkiadaki_Pose_from_Flow_2013_CVPR_paper.pdf'
p1219
S'pose estimation, motion segmentation, optical flow, tracking'
p1220
tp1221
sI591957118
(I591957118
S'Motionlets: Mid-level 3D Parts for Human Motion Recognition'
p1222
S'LiMin Wang, Yu Qiao, Xiaoou Tang'
p1223
S'Wang_Motionlets_Mid-level_3D_2013_CVPR_paper.pdf'
p1224
S''
tp1225
sI81085567
(I81085567
S'Online Dominant and Anomalous Behavior Detection in Videos'
p1226
S'Mehrsan Javan Roshtkhari, Martin D. Levine'
p1227
S'Roshtkhari_Online_Dominant_and_2013_CVPR_paper.pdf'
p1228
S'Surveillance, Video parsing, Hierarchical scene modeling, Behavior learning, Anomaly detection, Bag of video words, Contextual information, Spatio-Temporal compositions'
p1229
tp1230
sI183649415
(I183649415
S'First-Person Activity Recognition: What Are They Doing to Me?'
p1231
S'Michael S. Ryoo, Larry Matthies'
p1232
S'Ryoo_First-Person_Activity_Recognition_2013_CVPR_paper.pdf'
p1233
S'human activity recognition, first-person computer vision'
p1234
tp1235
sI904172681
(I904172681
S'Seeking the Strongest Rigid Detector'
p1236
S'Rodrigo Benenson, Markus Mathias, Tinne Tuytelaars, Luc Van_Gool'
p1237
S'Benenson_Seeking_the_Strongest_2013_CVPR_paper.pdf'
p1238
S'objects detection, pedestrian detection'
p1239
tp1240
sI367195276
(I367195276
S'The SVM-Minus Similarity Score for Video Face Recognition'
p1241
S'Lior Wolf, Noga Levy'
p1242
S'Wolf_The_SVM-Minus_Similarity_2013_CVPR_paper.pdf'
p1243
S'face recognition, video, youtube faces, similarity score, pose estimation'
p1244
tp1245
sI595543184
(I595543184
S'Bayesian Grammar Learning for Inverse Procedural Modeling'
p1246
S'Andelo Martinovic, Luc Van_Gool'
p1247
S'Martinovic_Bayesian_Grammar_Learning_2013_CVPR_paper.pdf'
p1248
S'inverse procedural modeling, shape grammars, grammar induction, SCFG, 2DSCFG, Bayesian model merging, Earley parser, urban modeling'
p1249
tp1250
sI39863449
(I39863449
S'Blur Processing Using Double Discrete Wavelet Transform'
p1251
S'Yi Zhang, Keigo Hirakawa'
p1252
S'Zhang_Blur_Processing_Using_2013_CVPR_paper.pdf'
p1253
S''
tp1254
sI706319515
(I706319515
S'Ensemble Learning for Confidence Measures in Stereo Vision'
p1255
S'Ralf Haeusler, Rahul Nair, Daniel Kondermann'
p1256
S'Haeusler_Ensemble_Learning_for_2013_CVPR_paper.pdf'
p1257
S'stereo, benchmarking, confidence measure, random forest'
p1258
tp1259
sI115211461
(I115211461
S'Block and Group Regularized Sparse Modeling for Dictionary Learning'
p1260
S'Yu-Tseh Chi, Mohsen Ali, Ajit Rajwade, Jeffrey Ho'
p1261
S'Chi_Block_and_Group_2013_CVPR_paper.pdf'
p1262
S'block group, sparse coding, dictionary learning'
p1263
tp1264
sI203404448
(I203404448
S'POOF: Part-Based One-vs.-One Features for Fine-Grained Categorization, Face Verification, and Attribute Estimation'
p1265
S'Thomas Berg, Peter N. Belhumeur'
p1266
S'Berg_POOF_Part-Based_One-vs.-One_2013_CVPR_paper.pdf'
p1267
S'fine-grained visual categorization, part-based recognition, face verification, attributes'
p1268
tp1269
sI912227490
(I912227490
S'Facial Feature Tracking Under Varying Facial Expressions and Face Poses Based on Restricted Boltzmann Machines'
p1270
S'Yue Wu, Zuoguan Wang, Qiang Ji'
p1271
S'Wu_Facial_Feature_Tracking_2013_CVPR_paper.pdf'
p1272
S'Facial feature tracking, Restricted Boltzmann Machines'
p1273
tp1274
sI938658980
(I938658980
S'Multi-scale Curve Detection on Surfaces'
p1275
S'Michael Kolomenkin, Ilan Shimshoni, Ayellet Tal'
p1276
S'Kolomenkin_Multi-scale_Curve_Detection_2013_CVPR_paper.pdf'
p1277
S'Multiscale, Curves, 3D'
p1278
tp1279
sI554917034
(I554917034
S'PDM-ENLOR: Learning Ensemble of Local PDM-Based Regressions'
p1280
S'Yen H. Le, Uday Kurkure, Ioannis A. Kakadiaris'
p1281
S'Le_PDM-ENLOR_Learning_Ensemble_2013_CVPR_paper.pdf'
p1282
S'PDM, ASM, ensemble'
p1283
tp1284
sI751365295
(I751365295
S'Scalable Sparse Subspace Clustering'
p1285
S'Xi Peng, Lei Zhang, Zhang Yi'
p1286
S'Peng_Scalable_Sparse_Subspace_2013_CVPR_paper.pdf'
p1287
S'Large scale dataset, Sparse similarity graph, subspace clustering, spectral clustering'
p1288
tp1289
sI400096438
(I400096438
S'A Higher-Order CRF Model for Road Network Extraction'
p1290
S'Jan D. Wegner, Javier A. Montoya-Zegarra, Konrad Schindler'
p1291
S'Wegner_A_Higher-Order_CRF_2013_CVPR_paper.pdf'
p1292
S'graphical models, high-order potentials, road network extraction, CRF'
p1293
tp1294
sI307219643
(I307219643
S'Measures and Meta-Measures for the Supervised Evaluation of Image Segmentation'
p1295
S'Jordi Pont-Tuset, Ferran Marques'
p1296
S'Pont-Tuset_Measures_and_Meta-Measures_2013_CVPR_paper.pdf'
p1297
S''
tp1298
sI373169343
(I373169343
S'Graph Transduction Learning with Connectivity Constraints with Application to Multiple Foreground Cosegmentation'
p1299
S'Tianyang Ma, Longin Jan Latecki'
p1300
S'Ma_Graph_Transduction_Learning_2013_CVPR_paper.pdf'
p1301
S''
tp1302
sI661925061
(I661925061
S'Salient Object Detection: A Discriminative Regional Feature Integration Approach'
p1303
S'Huaizu Jiang, Jingdong Wang, Zejian Yuan, Yang Wu, Nanning Zheng, Shipeng Li'
p1304
S'Jiang_Salient_Object_Detection_2013_CVPR_paper.pdf'
p1305
S''
tp1306
sI930145478
(I930145478
S'Photometric Ambient Occlusion'
p1307
S'Daniel Hauagge, Scott Wehrwein, Kavita Bala, Noah Snavely'
p1308
S'Hauagge_Photometric_Ambient_Occlusion_2013_CVPR_paper.pdf'
p1309
S'ambient occlusion, albedo, intrinsic images, image stacks'
p1310
tp1311
sI785464523
(I785464523
S'Simultaneous Active Learning of Classifiers & Attributes via Relative Feedback'
p1312
S'Arijit Biswas, Devi Parikh'
p1313
S'Biswas_Simultaneous_Active_Learning_2013_CVPR_paper.pdf'
p1314
S'Active Learning, Attributes, Relative Feedback, Classification, Large vocabulary, Face images'
p1315
tp1316
sI571755731
(I571755731
S'Axially Symmetric 3D Pots Configuration System Using Axis of Symmetry and Break Curve'
p1317
S'Kilho Son, Eduardo B. Almeida, David B. Cooper'
p1318
S'Son_Axially_Symmetric_3D_2013_CVPR_paper.pdf'
p1319
S'3D puzzle solving, 3D artifact reconstruction, 3D pot assembly, 3D axially symmetric shapes, 3D signal processing, geometric fragment matching, computational geometry, sherd configuration, 3D geometry learning, dataset alignment, anthropology, archaeology'
p1320
tp1321
sI284632280
(I284632280
S'Cross-View Action Recognition via a Continuous Virtual Path'
p1322
S'Zhong Zhang, Chunheng Wang, Baihua Xiao, Wen Zhou, Shuang Liu, Cunzhao Shi'
p1323
S'Zhang_Cross-View_Action_Recognition_2013_CVPR_paper.pdf'
p1324
S''
tp1325
sI548156634
(I548156634
S'Efficient Detector Adaptation for Object Detection in a Video'
p1326
S'Pramod Sharma, Ram Nevatia'
p1327
S'Sharma_Efficient_Detector_Adaptation_2013_CVPR_paper.pdf'
p1328
S''
tp1329
sI700095709
(I700095709
S'Hash Bit Selection: A Unified Solution for Selection Problems in Hashing'
p1330
S'Xianglong Liu, Junfeng He, Bo Lang, Shih-Fu Chang'
p1331
S'Liu_Hash_Bit_Selection_2013_CVPR_paper.pdf'
p1332
S'locality sensitive hashing, nearest neighbor search, hash bit selection, normalized dominant set'
p1333
tp1334
sI554732767
(I554732767
S'3D R Transform on Spatio-temporal Interest Points for Action Recognition'
p1335
S'Chunfeng Yuan, Xi Li, Weiming Hu, Haibin Ling, Stephen Maybank'
p1336
S'Yuan_3D_R_Transform_2013_CVPR_paper.pdf'
p1337
S''
tp1338
sI298241256
(I298241256
S'Beyond Point Clouds: Scene Understanding by Reasoning Geometry and Physics'
p1339
S'Bo Zheng, Yibiao Zhao, Joey C. Yu, Katsushi Ikeuchi, Song-Chun Zhu'
p1340
S'Zheng_Beyond_Point_Clouds_2013_CVPR_paper.pdf'
p1341
S''
tp1342
sI866067693
(I866067693
S'GeoF: Geodesic Forests for Learning Coupled Predictors'
p1343
S'Peter Kontschieder, Pushmeet Kohli, Jamie Shotton, Antonio Criminisi'
p1344
S'Kontschieder_GeoF_Geodesic_Forests_2013_CVPR_paper.pdf'
p1345
S'Decision forests, random forests, Markov random fields, conditional random fields, context'
p1346
tp1347
sI191040753
(I191040753
S'Top-Down Segmentation of Non-rigid Visual Objects Using Derivative-Based Search on Sparse Manifolds'
p1348
S'Jacinto C. Nascimento, Gustavo Carneiro'
p1349
S'Nascimento_Top-Down_Segmentation_of_2013_CVPR_paper.pdf'
p1350
S'Non-rigid top-down segmentation, deep belief network, manifold learning'
p1351
tp1352
sI994649330
(I994649330
S'Shading-Based Shape Refinement of RGB-D Images'
p1353
S'Lap-Fai Yu, Sai-Kit Yeung, Yu-Wing Tai, Stephen Lin'
p1354
S'Yu_Shading-Based_Shape_Refinement_2013_CVPR_paper.pdf'
p1355
S''
tp1356
sI118572277
(I118572277
S'MKPLS: Manifold Kernel Partial Least Squares for Lipreading and Speaker Identification'
p1357
S'Amr Bakry, Ahmed Elgammal'
p1358
S'Bakry_MKPLS_Manifold_Kernel_2013_CVPR_paper.pdf'
p1359
S'MKPLS, KPLS, PLS, Lipreading, Visual speech recognition, Speaker identification, OuluVs, AVLetters, Manifold Parameterization, Low-dimensional embedding, LBP'
p1360
tp1361
sI656628991
(I656628991
S'Modeling Mutual Visibility Relationship in Pedestrian Detection'
p1362
S'Wanli Ouyang, Xingyu Zeng, Xiaogang Wang'
p1363
S'Ouyang_Modeling_Mutual_Visibility_2013_CVPR_paper.pdf'
p1364
S'Pedestrian Detection, object detection, human detection, part based model, deep model, deep learning, deep belief net, deep'
p1365
tp1366
sI668517632
(I668517632
S'Hollywood 3D: Recognizing Actions in 3D Natural Scenes'
p1367
S'Simon Hadfield, Richard Bowden'
p1368
S'Hadfield_Hollywood_3D_Recognizing_2013_CVPR_paper.pdf'
p1369
S'action recognition, 3d, actions, hollywood, depth, stereo, 3.5d, 4d, interest points'
p1370
tp1371
sI169721097
(I169721097
S'Saliency Aggregation: A Data-Driven Approach'
p1372
S'Long Mai, Yuzhen Niu, Feng Liu'
p1373
S'Mai_Saliency_Aggregation_A_2013_CVPR_paper.pdf'
p1374
S''
tp1375
sI316835088
(I316835088
S'Articulated Pose Estimation Using Discriminative Armlet Classifiers'
p1376
S'Georgia Gkioxari, Pablo Arbelez, Lubomir Bourdev, Jitendra Malik'
p1377
S'Gkioxari_Articulated_Pose_Estimation_2013_CVPR_paper.pdf'
p1378
S''
tp1379
sI424888195
(I424888195
S'Image Matting with Local and Nonlocal Smooth Priors'
p1380
S'Xiaowu Chen, Dongqing Zou, Steven Zhiying Zhou, Qinping Zhao, Ping Tan'
p1381
S'Chen_Image_Matting_with_2013_CVPR_paper.pdf'
p1382
S'Image matting, local and nonlocal smooth priors'
p1383
tp1384
sI819830038
(I819830038
S'Augmenting Bag-of-Words: Data-Driven Discovery of Temporal and Structural Information for Activity Recognition'
p1385
S'Vinay Bettadapura, Grant Schindler, Thomas Ploetz, Irfan Essa'
p1386
S'Bettadapura_Augmenting_Bag-of-Words_Data-Driven_2013_CVPR_paper.pdf'
p1387
S'Activity Recognition, Anomaly Detection, Bag of Words, Skill Assessment, Surveillance, Video'
p1388
tp1389
sI705797402
(I705797402
S'Towards Fast and Accurate Segmentation'
p1390
S'Camillo Jose Taylor'
p1391
S'Taylor_Towards_Fast_and_2013_CVPR_paper.pdf'
p1392
S'Segmentation'
p1393
tp1394
sI379729179
(I379729179
S'Real-Time No-Reference Image Quality Assessment Based on Filter Learning'
p1395
S'Peng Ye, Jayant Kumar, Le Kang, David Doermann'
p1396
S'Ye_Real-Time_No-Reference_Image_2013_CVPR_paper.pdf'
p1397
S'image quality assessment'
p1398
tp1399
sI152235466
(I152235466
S'Weakly Supervised Learning for Attribute Localization in Outdoor Scenes'
p1400
S'Shuo Wang, Jungseock Joo, Yizhou Wang, Song-Chun Zhu'
p1401
S'Wang_Weakly_Supervised_Learning_2013_CVPR_paper.pdf'
p1402
S'Hierarchical Space Tiling (HST), scene configuration, attribute localization'
p1403
tp1404
sI344302887
(I344302887
S'Procrustean Normal Distribution for Non-rigid Structure from Motion'
p1405
S'Minsik Lee, Jungchan Cho, Chong-Ho Choi, Songhwai Oh'
p1406
S'Lee_Procrustean_Normal_Distribution_2013_CVPR_paper.pdf'
p1407
S'Non-Rigid Structure from Motion, Procrustean Normal Distribution'
p1408
tp1409
sI576771386
(I576771386
S'Object-Centric Anomaly Detection by Attribute-Based Reasoning'
p1410
S'Babak Saleh, Ali Farhadi, Ahmed Elgammal'
p1411
S'Saleh_Object-Centric_Anomaly_Detection_2013_CVPR_paper.pdf'
p1412
S''
tp1413
sI116272447
(I116272447
S'Physically Plausible 3D Scene Tracking: The Single Actor Hypothesis'
p1414
S'Nikolaos Kyriazis, Antonis Argyros'
p1415
S'Kyriazis_Physically_Plausible_3D_2013_CVPR_paper.pdf'
p1416
S'3d, hand, tracking, physics, physically, plausible, multi, single, actor, hypothesis'
p1417
tp1418
sI505363777
(I505363777
S'Part-Based Visual Tracking with Online Latent Structural Learning'
p1419
S'Rui Yao, Qinfeng Shi, Chunhua Shen, Yanning Zhang, Anton van_den_Hengel'
p1420
S'Yao_Part-Based_Visual_Tracking_2013_CVPR_paper.pdf'
p1421
S'visual tracking, part-based, online structural learning'
p1422
tp1423
sI492692808
(I492692808
S'Detecting Pulse from Head Motions in Video'
p1424
S'Guha Balakrishnan, Fredo Durand, John Guttag'
p1425
S'Balakrishnan_Detecting_Pulse_from_2013_CVPR_paper.pdf'
p1426
S'humans, motion estimation, medical imaging, pulse measurement, principal component analysis, optical flow'
p1427
tp1428
sI699823435
(I699823435
S'Learning Multiple Non-linear Sub-spaces Using K-RBMs'
p1429
S'Siddhartha Chandra, Shailesh Kumar, C.V. Jawahar'
p1430
S'Chandra_Learning_Multiple_Non-linear_2013_CVPR_paper.pdf'
p1431
S'Feature Learning, Clustering, Non-Linear Subspace'
p1432
tp1433
sI98956624
(I98956624
S'Context-Aware Modeling and Recognition of Activities in Video'
p1434
S'Yingying Zhu, Nandita M. Nayak, Amit K. Roy-Chowdhury'
p1435
S'Zhu_Context-Aware_Modeling_and_2013_CVPR_paper.pdf'
p1436
S''
tp1437
sI436745561
(I436745561
S'FasT-Match: Fast Affine Template Matching'
p1438
S'Simon Korman, Daniel Reichman, Gilad Tsur, Shai Avidan'
p1439
S'Korman_FasT-Match_Fast_Affine_2013_CVPR_paper.pdf'
p1440
S''
tp1441
sI204007312
(I204007312
S'A Practical Rank-Constrained Eight-Point Algorithm for Fundamental Matrix Estimation'
p1442
S'Yinqiang Zheng, Shigeki Sugimoto, Masatoshi Okutomi'
p1443
S'Zheng_A_Practical_Rank-Constrained_2013_CVPR_paper.pdf'
p1444
S''
tp1445
sI238056806
(I238056806
S'Robust Canonical Time Warping for the Alignment of Grossly Corrupted Sequences'
p1446
S'Yannis Panagakis, Mihalis A. Nicolaou, Stefanos Zafeiriou, Maja Pantic'
p1447
S'Panagakis_Robust_Canonical_Time_2013_CVPR_paper.pdf'
p1448
S'Temporal Alignment, Rank Minimization, Nuclear Norm, l1 norm'
p1449
tp1450
sI288400753
(I288400753
S'Efficient 2D-to-3D Correspondence Filtering for Scalable 3D Object Recognition'
p1451
S'Qiang Hao, Rui Cai, Zhiwei Li, Lei Zhang, Yanwei Pang, Feng Wu, Yong Rui'
p1452
S'Hao_Efficient_2D-to-3D_Correspondence_2013_CVPR_paper.pdf'
p1453
S''
tp1454
sI836713843
(I836713843
S'An Iterated L1 Algorithm for Non-smooth Non-convex Optimization in Computer Vision'
p1455
S'Peter Ochs, Alexey Dosovitskiy, Thomas Brox, Thomas Pock'
p1456
S'Ochs_An_Iterated_L1_2013_CVPR_paper.pdf'
p1457
S'optimization, non-smooth non-convex optimization'
p1458
tp1459
sI362065270
(I362065270
S'Bayesian Depth-from-Defocus with Shading Constraints'
p1460
S'Chen Li, Shuochen Su, Yasuyuki Matsushita, Kun Zhou, Stephen Lin'
p1461
S'Li_Bayesian_Depth-from-Defocus_with_2013_CVPR_paper.pdf'
p1462
S''
tp1463
sI975504760
(I975504760
S'Mesh Based Semantic Modelling for Indoor and Outdoor Scenes'
p1464
S'Julien P.C. Valentin, Sunando Sengupta, Jonathan Warrell, Ali Shahrokni, Philip H.S. Torr'
p1465
S'Valentin_Mesh_Based_Semantic_2013_CVPR_paper.pdf'
p1466
S'3d scene understanding'
p1467
tp1468
sI412061060
(I412061060
S'Intrinsic Characterization of Dynamic Surfaces'
p1469
S'Tony Tung, Takashi Matsuyama'
p1470
S'Tung_Intrinsic_Characterization_of_2013_CVPR_paper.pdf'
p1471
S'Dynamic surface, dynamical system, 3D video, intrinsic description, bag-of-feature'
p1472
tp1473
sI857310605
(I857310605
S'Incorporating User Interaction and Topological Constraints within Contour Completion via Discrete Calculus'
p1474
S'Jia Xu, Maxwell D. Collins, Vikas Singh'
p1475
S'Xu_Incorporating_User_Interaction_2013_CVPR_paper.pdf'
p1476
S'interactive segmentation, contour completion, discrete calculus, topology'
p1477
tp1478
sI109997454
(I109997454
S'A Comparative Study of Modern Inference Techniques for Discrete Energy Minimization Problems'
p1479
S'Jrg H. Kappes, Bjoern Andres, Fred A. Hamprecht, Christoph Schnrr, Sebastian Nowozin, Dhruv Batra, Sungwoong Kim, Bernhard X. Kausler, Jan Lellmann, Nikos Komodakis, Carsten Rother'
p1480
S'Kappes_A_Comparative_Study_2013_CVPR_paper.pdf'
p1481
S'graphical models, discrete optimization, Markov random fields, benchmark'
p1482
tp1483
sI919750032
(I919750032
S'Lost! Leveraging the Crowd for Probabilistic Visual Self-Localization'
p1484
S'Marcus A. Brubaker, Andreas Geiger, Raquel Urtasun'
p1485
S'Brubaker_Lost_Leveraging_the_2013_CVPR_paper.pdf'
p1486
S'visual odometry, localization, mixture model'
p1487
tp1488
sI332891544
(I332891544
S'A Linear Approach to Matching Cuboids in RGBD Images'
p1489
S'Hao Jiang, Jianxiong Xiao'
p1490
S'Jiang_A_Linear_Approach_2013_CVPR_paper.pdf'
p1491
S'cuboid detection, RGBD image understanding, linear optimization'
p1492
tp1493
sI875830682
(I875830682
S'Evaluation of Color STIPs for Human Action Recognition'
p1494
S'Ivo Everts, Jan C. van_Gemert, Theo Gevers'
p1495
S'Everts_Evaluation_of_Color_2013_CVPR_paper.pdf'
p1496
S'action recognition, color, evaluation'
p1497
tp1498
sI721304988
(I721304988
S'BFO Meets HOG: Feature Extraction Based on Histograms of Oriented p.d.f. Gradients for Image Classification'
p1499
S'Takumi Kobayashi'
p1500
S'Kobayashi_BFO_Meets_HOG_2013_CVPR_paper.pdf'
p1501
S'image feature, bag of features, probability density function, kernel density estimation, oriented gradient'
p1502
tp1503
sI481605033
(I481605033
S'Wide-Baseline Hair Capture Using Strand-Based Refinement'
p1504
S'Linjie Luo, Cha Zhang, Zhengyou Zhang, Szymon Rusinkiewicz'
p1505
S'Luo_Wide-Baseline_Hair_Capture_2013_CVPR_paper.pdf'
p1506
S'multi-view stereo, hair reconstruction, wide-baseline, visual hull refinement'
p1507
tp1508
sI257441196
(I257441196
S'Accurate and Robust Registration of Nonrigid Surface Using Hierarchical Statistical Shape Model'
p1509
S'Hidekata Hontani, Yuto Tsunekawa, Yoshihide Sawada'
p1510
S'Hontani_Accurate_and_Robust_2013_CVPR_paper.pdf'
p1511
S''
tp1512
sI104512946
(I104512946
S'Class Generative Models Based on Feature Regression for Pose Estimation of Object Categories'
p1513
S'Michele Fenzi, Laura Leal-Taix, Bodo Rosenhahn, Jrn Ostermann'
p1514
S'Fenzi_Class_Generative_Models_2013_CVPR_paper.pdf'
p1515
S'Continuous pose estimation, feature learning, categorization, generative models'
p1516
tp1517
sI154490291
(I154490291
S'The Episolar Constraint: Monocular Shape from Shadow Correspondence'
p1518
S'Austin Abrams, Kylia Miskell, Robert Pless'
p1519
S'Abrams_The_Episolar_Constraint_2013_CVPR_paper.pdf'
p1520
S''
tp1521
sI800171445
(I800171445
S'Illumination Estimation Based on Bilayer Sparse Coding'
p1522
S'Bing Li, Weihua Xiong, Weiming Hu, Houwen Peng'
p1523
S'Li_Illumination_Estimation_Based_2013_CVPR_paper.pdf'
p1524
S'color constancy, illumination estimation, sparse coding'
p1525
tp1526
sI169891144
(I169891144
S'Improving an Object Detector and Extracting Regions Using Superpixels'
p1527
S'Guang Shu, Afshin Dehghan, Mubarak Shah'
p1528
S'Shu_Improving_an_Object_2013_CVPR_paper.pdf'
p1529
S''
tp1530
sI553758136
(I553758136
S'Dense Segmentation-Aware Descriptors'
p1531
S'Eduard Trulls, Iasonas Kokkinos, Alberto Sanfeliu, Francesc Moreno-Noguer'
p1532
S'Trulls_Dense_Segmentation-Aware_Descriptors_2013_CVPR_paper.pdf'
p1533
S'appearance descriptors, segmentation, matching, stereo'
p1534
tp1535
sI38974905
(I38974905
S'A Bayesian Approach to Multimodal Visual Dictionary Learning'
p1536
S'Go Irie, Dong Liu, Zhenguo Li, Shih-Fu Chang'
p1537
S'Irie_A_Bayesian_Approach_2013_CVPR_paper.pdf'
p1538
S'co-clustering, multimodal, visual dictionary'
p1539
tp1540
sI795790780
(I795790780
S'Nonlinearly Constrained MRFs: Exploring the Intrinsic Dimensions of Higher-Order Cliques'
p1541
S'Yun Zeng, Chaohui Wang, Stefano Soatto, Shing-Tung Yau'
p1542
S'Zeng_Nonlinearly_Constrained_MRFs_2013_CVPR_paper.pdf'
p1543
S'Higher-order Markov Random Fields, MAP Inference, Segmentation, 3D Shape Tracking'
p1544
tp1545
sI202948039
(I202948039
S'Video Editing with Temporal, Spatial and Appearance Consistency'
p1546
S'Xiaojie Guo, Xiaochun Cao, Xiaowu Chen, Yi Ma'
p1547
S'Guo_Video_Editing_with_2013_CVPR_paper.pdf'
p1548
S'Video Editing, Temporal Alignment, Spatial Rectification'
p1549
tp1550
sI384689610
(I384689610
S'Learning a Manifold as an Atlas'
p1551
S'Nikolaos Pitelis, Chris Russell, Lourdes Agapito'
p1552
S'Pitelis_Learning_a_Manifold_2013_CVPR_paper.pdf'
p1553
S'manifold learning, dimensionality reduction, 3D reconstruction, face recognition'
p1554
tp1555
sI918042078
(I918042078
S'Relative Hidden Markov Models for Evaluating Motion Skill'
p1556
S'Qiang Zhang, Baoxin Li'
p1557
S'Zhang_Relative_Hidden_Markov_2013_CVPR_paper.pdf'
p1558
S'relative, HMM, surgical simulation, motion skill'
p1559
tp1560
sI520634960
(I520634960
S'Adherent Raindrop Detection and Removal in Video'
p1561
S'Shaodi You, Robby T. Tan, Rei Kawakami, Katsushi Ikeuchi'
p1562
S'You_Adherent_Raindrop_Detection_2013_CVPR_paper.pdf'
p1563
S''
tp1564
sI206003682
(I206003682
S'Selective Transfer Machine for Personalized Facial Action Unit Detection'
p1565
S'Wen-Sheng Chu, Fernando De La Torre, Jeffery F. Cohn'
p1566
S'Chu_Selective_Transfer_Machine_2013_CVPR_paper.pdf'
p1567
S'Facial action unit detection, domain adaptation, SVM'
p1568
tp1569
sI368461288
(I368461288
S'Understanding Indoor Scenes Using 3D Geometric Phrases'
p1570
S'Wongun Choi, Yu-Wei Chao, Caroline Pantofaru, Silvio Savarese'
p1571
S'Choi_Understanding_Indoor_Scenes_2013_CVPR_paper.pdf'
p1572
S''
tp1573
sI652465642
(I652465642
S'Sparse Subspace Denoising for Image Manifolds'
p1574
S'Bo Wang, Zhuowen Tu'
p1575
S'Wang_Sparse_Subspace_Denoising_2013_CVPR_paper.pdf'
p1576
S''
tp1577
sI33754608
(I33754608
S'Topical Video Object Discovery from Key Frames by Modeling Word Co-occurrence Prior'
p1578
S'Gangqiang Zhao, Junsong Yuan, Gang Hua'
p1579
S'Zhao_Topical_Video_Object_2013_CVPR_paper.pdf'
p1580
S''
tp1581
sI438515187
(I438515187
S'Recovering Line-Networks in Images by Junction-Point Processes'
p1582
S'Dengfeng Chai, Wolfgang Frstner, Florent Lafarge'
p1583
S'Chai_Recovering_Line-Networks_in_2013_CVPR_paper.pdf'
p1584
S''
tp1585
sI714678187
(I714678187
S'Submodular Salient Region Detection'
p1586
S'Zhuolin Jiang, Larry S. Davis'
p1587
S'Jiang_Submodular_Salient_Region_2013_CVPR_paper.pdf'
p1588
S''
tp1589
sI97019400
(I97019400
S'Probabilistic Elastic Matching for Pose Variant Face Verification'
p1590
S'Haoxiang Li, Gang Hua, Zhe Lin, Jonathan Brandt, Jianchao Yang'
p1591
S'Li_Probabilistic_Elastic_Matching_2013_CVPR_paper.pdf'
p1592
S''
tp1593
sI79300106
(I79300106
S'Templateless Quasi-rigid Shape Modeling with Implicit Loop-Closure'
p1594
S'Ming Zeng, Jiaxiang Zheng, Xuan Cheng, Xinguo Liu'
p1595
S'Zeng_Templateless_Quasi-rigid_Shape_2013_CVPR_paper.pdf'
p1596
S'3d modeling, depth camera, human modeling, nonrigid deformation'
p1597
tp1598
sI92419595
(I92419595
S'Manhattan Scene Understanding via XSlit Imaging'
p1599
S'Jinwei Ye, Yu Ji, Jingyi Yu'
p1600
S'Ye_Manhattan_Scene_Understanding_2013_CVPR_paper.pdf'
p1601
S'3D Reconstruction, Multi-perspective Imaging, Scene Understanding'
p1602
tp1603
sI691416592
(I691416592
S'Fast, Accurate Detection of 100,000 Object Classes on a Single Machine'
p1604
S'Thomas Dean, Mark A. Ruzon, Mark Segal, Jonathon Shlens, Sudheendra Vijayanarasimhan, Jay Yagnik'
p1605
S'Dean_Fast_Accurate_Detection_2013_CVPR_paper.pdf'
p1606
S'object detection, deformable part models, locality-sensitive hashing'
p1607
tp1608
sI456701458
(I456701458
S'Exploiting the Power of Stereo Confidences'
p1609
S'David Pfeiffer, Stefan Gehrig, Nicolai Schneider'
p1610
S'Pfeiffer_Exploiting_the_Power_2013_CVPR_paper.pdf'
p1611
S'Stereo, Stereo-vision, Stixel World, Stereo Confidences, Image Processing, Machine Vision, Segmentation, MAP Estimation, Ground Truth, Evaluation'
p1612
tp1613
sI984446483
(I984446483
S'Semi-supervised Learning of Feature Hierarchies for Object Detection in a Video'
p1614
S'Yang Yang, Guang Shu, Mubarak Shah'
p1615
S'Yang_Semi-supervised_Learning_of_2013_CVPR_paper.pdf'
p1616
S'Object detection, feature learning, deep learning, video analysis'
p1617
tp1618
sI657047065
(I657047065
S'From N to N+1: Multiclass Transfer Incremental Learning'
p1619
S'Ilja Kuzborskij, Francesco Orabona, Barbara Caputo'
p1620
S'Kuzborskij_From_N_to_2013_CVPR_paper.pdf'
p1621
S'transfer learning, domain adaptation, multiclass, visual object categorization, LSSVM, leave-one-out'
p1622
tp1623
sI341747231
(I341747231
S'In Defense of Sparsity Based Face Recognition'
p1624
S'Weihong Deng, Jiani Hu, Jun Guo'
p1625
S'Deng_In_Defense_of_2013_CVPR_paper.pdf'
p1626
S'Face Recognition, Sparse Representation'
p1627
tp1628
sI308231088
(I308231088
S'Multi-image Blind Deblurring Using a Coupled Adaptive Sparse Prior'
p1629
S'Haichao Zhang, David Wipf, Yanning Zhang'
p1630
S'Zhang_Multi-image_Blind_Deblurring_2013_CVPR_paper.pdf'
p1631
S'blind image deblurring, multi-image blind deconvolution, sparse recovery, adaptive coupled sparsity'
p1632
tp1633
sI478574114
(I478574114
S'Finding Group Interactions in Social Clutter'
p1634
S'Ruonan Li, Parker Porfilio, Todd Zickler'
p1635
S'Li_Finding_Group_Interactions_2013_CVPR_paper.pdf'
p1636
S''
tp1637
sI485447205
(I485447205
S'Layer Depth Denoising and Completion for Structured-Light RGB-D Cameras'
p1638
S'Ju Shen, Sen-Ching S. Cheung'
p1639
S'Shen_Layer_Depth_Denoising_2013_CVPR_paper.pdf'
p1640
S'Depth image denoising, depth completion, RGB-D sensor, Kinect'
p1641
tp1642
sI451907111
(I451907111
S'Three-Dimensional Bilateral Symmetry Plane Estimation in the Phase Domain'
p1643
S'Ramakrishna Kakarala, Prabhu Kaliamoorthi, Vittal Premachandran'
p1644
S'Kakarala_Three-Dimensional_Bilateral_Symmetry_2013_CVPR_paper.pdf'
p1645
S'symmetry, spherical harmonics, phase, sampling'
p1646
tp1647
sI990146092
(I990146092
S'Large-Scale Video Summarization Using Web-Image Priors'
p1648
S'Aditya Khosla, Raffay Hamid, Chih-Jen Lin, Neel Sundaresan'
p1649
S'Khosla_Large-Scale_Video_Summarization_2013_CVPR_paper.pdf'
p1650
S''
tp1651
sI762103341
(I762103341
S'Adaptive Compressed Tomography Sensing'
p1652
S'Oren Barkan, Jonathan Weill, Amir Averbuch, Shai Dekel'
p1653
S'Barkan_Adaptive_Compressed_Tomography_2013_CVPR_paper.pdf'
p1654
S'Computed Tomography, Adaptive Compressed Sensing, Low-dose CT, Ridgelets'
p1655
tp1656
sI623324720
(I623324720
S'Unsupervised Salience Learning for Person Re-identification'
p1657
S'Rui Zhao, Wanli Ouyang, Xiaogang Wang'
p1658
S'Zhao_Unsupervised_Salience_Learning_2013_CVPR_paper.pdf'
p1659
S'Salience matching, person re-identification, recognition'
p1660
tp1661
sI532829750
(I532829750
S'Segment-Tree Based Cost Aggregation for Stereo Matching'
p1662
S'Xing Mei, Xun Sun, Weiming Dong, Haitao Wang, Xiaopeng Zhang'
p1663
S'Mei_Segment-Tree_Based_Cost_2013_CVPR_paper.pdf'
p1664
S''
tp1665
sI789911102
(I789911102
S'Separating Signal from Noise Using Patch Recurrence across Scales'
p1666
S'Maria Zontak, Inbar Mosseri, Michal Irani'
p1667
S'Zontak_Separating_Signal_from_2013_CVPR_paper.pdf'
p1668
S'multi-scale prior for noisy images, image denoising, patch recurrence'
p1669
tp1670
sI742809152
(I742809152
S"What's in a Name? First Names as Facial Attributes"
p1671
S'Huizhong Chen, Andrew C. Gallagher, Bernd Girod'
p1672
S'Chen_Whats_in_a_2013_CVPR_paper.pdf'
p1673
S''
tp1674
sI237731398
(I237731398
S'Tracking People and Their Objects'
p1675
S'Tobias Baumgartner, Dennis Mitzel, Bastian Leibe'
p1676
S'Baumgartner_Tracking_People_and_2013_CVPR_paper.pdf'
p1677
S''
tp1678
sI397710934
(I397710934
S'Semi-supervised Domain Adaptation with Instance Constraints'
p1679
S'Jeff Donahue, Judy Hoffman, Erik Rodner, Kate Saenko, Trevor Darrell'
p1680
S'Donahue_Semi-supervised_Domain_Adaptation_2013_CVPR_paper.pdf'
p1681
S'domain adaptation, visual recognition'
p1682
tp1683
sI160192092
(I160192092
S'Non-parametric Filtering for Geometric Detail Extraction and Material Representation'
p1684
S'Zicheng Liao, Jason Rock, Yang Wang, David Forsyth'
p1685
S'Liao_Non-parametric_Filtering_for_2013_CVPR_paper.pdf'
p1686
S'Geometric detail, material representation, intrinsic image decomposition'
p1687
tp1688
sI174771808
(I174771808
S'Weakly Supervised Learning of Mid-Level Features with Beta-Bernoulli Process Restricted Boltzmann Machines'
p1689
S'Roni Mittelman, Honglak Lee, Benjamin Kuipers, Silvio Savarese'
p1690
S'Mittelman_Weakly_Supervised_Learning_2013_CVPR_paper.pdf'
p1691
S'Restricted Boltzmann Machine, attributes, semantics, Beta-Bernoulli process, mid-level features'
p1692
tp1693
sI961023248
(I961023248
S'Multi-target Tracking by Lagrangian Relaxation to Min-cost Network Flow'
p1694
S'Asad A. Butt, Robert T. Collins'
p1695
S'Butt_Multi-target_Tracking_by_2013_CVPR_paper.pdf'
p1696
S'Multi-target Tracking, Network Flow, Lagrangian Relaxation'
p1697
tp1698
sI653344357
(I653344357
S'Exploring Compositional High Order Pattern Potentials for Structured Output Learning'
p1699
S'Yujia Li, Daniel Tarlow, Richard Zemel'
p1700
S'Li_Exploring_Compositional_High_2013_CVPR_paper.pdf'
p1701
S''
tp1702
sI587255398
(I587255398
S'Robust Region Grouping via Internal Patch Statistics'
p1703
S'Xiaobai Liu, Liang Lin, Alan L. Yuille'
p1704
S'Liu_Robust_Region_Grouping_2013_CVPR_paper.pdf'
p1705
S''
tp1706
sI622495335
(I622495335
S'A Divide-and-Conquer Method for Scalable Low-Rank Latent Matrix Pursuit'
p1707
S'Yan Pan, Hanjiang Lai, Cong Liu, Shuicheng Yan'
p1708
S'Pan_A_Divide-and-Conquer_Method_2013_CVPR_paper.pdf'
p1709
S'divide-and-conquer method, low-rank matrices, prediction fushion'
p1710
tp1711
sI17200744
(I17200744
S'Revisiting Depth Layers from Occlusions'
p1712
S'Adarsh Kowdle, Andrew Gallagher, Tsuhan Chen'
p1713
S'Kowdle_Revisiting_Depth_Layers_2013_CVPR_paper.pdf'
p1714
S'Image-based modeling, segmentation, scene understanding'
p1715
tp1716
sI4226668
(I4226668
S'Multi-source Multi-scale Counting in Extremely Dense Crowd Images'
p1717
S'Haroon Idrees, Imran Saleemi, Cody Seibert, Mubarak Shah'
p1718
S'Idrees_Multi-source_Multi-scale_Counting_2013_CVPR_paper.pdf'
p1719
S'Dense Crowds, Counting, Markov Random Field, Multi-scale Analysis'
p1720
tp1721
sI70362735
(I70362735
S'Mirror Surface Reconstruction from a Single Image'
p1722
S'Miaomiao Liu, Richard Hartley, Mathieu Salzmann'
p1723
S'Liu_Mirror_Surface_Reconstruction_2013_CVPR_paper.pdf'
p1724
S'Reconstruction, Mirror Surface, Reflection, Single Image, IVP, PDE'
p1725
tp1726
sI376634993
(I376634993
S'Detection Evolution with Multi-order Contextual Co-occurrence'
p1727
S'Guang Chen, Yuanyuan Ding, Jing Xiao, Tony X. Han'
p1728
S'Chen_Detection_Evolution_with_2013_CVPR_paper.pdf'
p1729
S'Detection, Context'
p1730
tp1731
sI981720339
(I981720339
S'Discriminative Segment Annotation in Weakly Labeled Video'
p1732
S'Kevin Tang, Rahul Sukthankar, Jay Yagnik, Li Fei-Fei'
p1733
S'Tang_Discriminative_Segment_Annotation_2013_CVPR_paper.pdf'
p1734
S''
tp1735
sI647366260
(I647366260
S'Compressed Hashing'
p1736
S'Yue Lin, Rong Jin, Deng Cai, Shuicheng Yan, Xuelong Li'
p1737
S'Lin_Compressed_Hashing_2013_CVPR_paper.pdf'
p1738
S'Hashing, Nearest Neighbor Search, Random Projection, Compressed Sensing'
p1739
tp1740
sI299212405
(I299212405
S'Deep Learning Shape Priors for Object Segmentation'
p1741
S'Fei Chen, Huimin Yu, Roland Hu, Xunxun Zeng'
p1742
S'Chen_Deep_Learning_Shape_2013_CVPR_paper.pdf'
p1743
S'Deep learning, Boltzmann machine, shape priors, segmentation, variational methods'
p1744
tp1745
sI168412792
(I168412792
S'Learning Class-to-Image Distance with Object Matchings'
p1746
S'Guang-Tong Zhou, Tian Lan, Weilong Yang, Greg Mori'
p1747
S'Zhou_Learning_Class-to-Image_Distance_2013_CVPR_paper.pdf'
p1748
S''
tp1749
sI977669754
(I977669754
S'A Non-parametric Framework for Document Bleed-through Removal'
p1750
S'Risn Rowley-Brooke, Franois Piti, Anil Kokaram'
p1751
S'Rowley-Brooke_A_Non-parametric_Framework_2013_CVPR_paper.pdf'
p1752
S'document image processing, bleed-through removal'
p1753
tp1754
sI205786732
(I205786732
S'Calibrating Photometric Stereo by Holistic Reflectance Symmetry Analysis'
p1755
S'Zhe Wu, Ping Tan'
p1756
S'Wu_Calibrating_Photometric_Stereo_2013_CVPR_paper.pdf'
p1757
S''
tp1758
sI625274509
(I625274509
S'Voxel Cloud Connectivity Segmentation - Supervoxels for Point Clouds'
p1759
S'Jeremie Papon, Alexey Abramov, Markus Schoeler, Florentin Wrgtter'
p1760
S'Papon_Voxel_Cloud_Connectivity_2013_CVPR_paper.pdf'
p1761
S'segmentation, pointclouds, superpixels, kinect, PCL'
p1762
tp1763
sI130727568
(I130727568
S'Deformable Graph Matching'
p1764
S'Feng Zhou, Fernando De_la_Torre'
p1765
S'Zhou_Deformable_Graph_Matching_2013_CVPR_paper.pdf'
p1766
S''
tp1767
sI914194070
(I914194070
S'Accurate Localization of 3D Objects from RGB-D Data Using Segmentation Hypotheses'
p1768
S'Byung-soo Kim, Shili Xu, Silvio Savarese'
p1769
S'Kim_Accurate_Localization_of_2013_CVPR_paper.pdf'
p1770
S'RGB-D, Object recognition, Object detection, 3D localization'
p1771
tp1772
sI129808023
(I129808023
S'Boosting Binary Keypoint Descriptors'
p1773
S'Tomasz Trzcinski, Mario Christoudias, Pascal Fua, Vincent Lepetit'
p1774
S'Trzcinski_Boosting_Binary_Keypoint_2013_CVPR_paper.pdf'
p1775
S'Binary Local Feature Descriptors, Binary Embedding, Boosting'
p1776
tp1777
sI583995038
(I583995038
S'Detection- and Trajectory-Level Exclusion in Multiple Object Tracking'
p1778
S'Anton Milan, Konrad Schindler, Stefan Roth'
p1779
S'Milan_Detection-_and_Trajectory-Level_2013_CVPR_paper.pdf'
p1780
S'Multi-object tracking, tracking-by-detection, visual surveillance'
p1781
tp1782
sI675165855
(I675165855
S'Area Preserving Brain Mapping'
p1783
S'Zhengyu Su, Wei Zeng, Rui Shi, Yalin Wang, Jian Sun, Xianfeng Gu'
p1784
S'Su_Area_Preserving_Brain_2013_CVPR_paper.pdf'
p1785
S''
tp1786
sI496197284
(I496197284
S'Decoding, Calibration and Rectification for Lenselet-Based Plenoptic Cameras'
p1787
S'Donald G. Dansereau, Oscar Pizarro, Stefan B. Williams'
p1788
S'Dansereau_Decoding_Calibration_and_2013_CVPR_paper.pdf'
p1789
S'light field, plenoptic, camera calibration, image rectification'
p1790
tp1791
sI354336434
(I354336434
S'Leveraging Structure from Motion to Learn Discriminative Codebooks for Scalable Landmark Classification'
p1792
S'Alessandro Bergamo, Sudipta N. Sinha, Lorenzo Torresani'
p1793
S'Bergamo_Leveraging_Structure_from_2013_CVPR_paper.pdf'
p1794
S'discriminative codebook, dictionary, structure from motion, landmark classification'
p1795
tp1796
sI202944183
(I202944183
S'Transfer Sparse Coding for Robust Image Representation'
p1797
S'Mingsheng Long, Guiguang Ding, Jianmin Wang, Jiaguang Sun, Yuchen Guo, Philip S. Yu'
p1798
S'Long_Transfer_Sparse_Coding_2013_CVPR_paper.pdf'
p1799
S'sparse coding, transfer learning, image representation'
p1800
tp1801
sI677297849
(I677297849
S'Subspace Interpolation via Dictionary Learning for Unsupervised Domain Adaptation'
p1802
S'Jie Ni, Qiang Qiu, Rama Chellappa'
p1803
S'Ni_Subspace_Interpolation_via_2013_CVPR_paper.pdf'
p1804
S''
tp1805
sI432268993
(I432268993
S'Discriminative Color Descriptors'
p1806
S'Rahat Khan, Joost van_de_Weijer, Fahad Shahbaz Khan, Damien Muselet, Christophe Ducottet, Cecile Barat'
p1807
S'Khan_Discriminative_Color_Descriptors_2013_CVPR_paper.pdf'
p1808
S'Color, Information Theory, Mutual Information, Color Names, Feature Learning'
p1809
tp1810
sI356402883
(I356402883
S'Scene Text Recognition Using Part-Based Tree-Structured Character Detection'
p1811
S'Cunzhao Shi, Chunheng Wang, Baihua Xiao, Yang Zhang, Song Gao, Zhong Zhang'
p1812
S'Shi_Scene_Text_Recognition_2013_CVPR_paper.pdf'
p1813
S''
tp1814
sI25693900
(I25693900
S'Globally Consistent Multi-label Assignment on the Ray Space of 4D Light Fields'
p1815
S'Sven Wanner, Christoph Straehle, Bastian Goldluecke'
p1816
S'Wanner_Globally_Consistent_Multi-label_2013_CVPR_paper.pdf'
p1817
S'light field analysis, multi-label problems, variational methods'
p1818
tp1819
sI82140880
(I82140880
S'Fully-Connected CRFs with Non-Parametric Pairwise Potential'
p1820
S'Neill D.F. Campbell, Kartic Subr, Jan Kautz'
p1821
S'Campbell_Fully-Connected_CRFs_with_2013_CVPR_paper.pdf'
p1822
S'machine learning, CRF, non-parametric'
p1823
tp1824
sI541030098
(I541030098
S'Learning Collections of Part Models for Object Recognition'
p1825
S'Ian Endres, Kevin J. Shih, Johnston Jiaa, Derek Hoiem'
p1826
S'Endres_Learning_Collections_of_2013_CVPR_paper.pdf'
p1827
S''
tp1828
sI132271832
(I132271832
S"Image Understanding from Experts' Eyes by Modeling Perceptual Skill of Diagnostic Reasoning Processes"
p1829
S'Rui Li, Pengcheng Shi, Anne R. Haake'
p1830
S'Li_Image_Understanding_from_2013_CVPR_paper.pdf'
p1831
S''
tp1832
sI739651293
(I739651293
S'Discriminative Re-ranking of Diverse Segmentations'
p1833
S'Payman Yadollahpour, Dhruv Batra, Gregory Shakhnarovich'
p1834
S'Yadollahpour_Discriminative_Re-ranking_of_2013_CVPR_paper.pdf'
p1835
S'M-best, MAP, diverse, diversity, re-ranker, re-ranking, ranking, ranker, segmentation, PASCAL, discriminative, SVM, o2pt'
p1836
tp1837
sI154152678
(I154152678
S"It's Not Polite to Point: Describing People with Uncertain Attributes"
p1838
S'Amir Sadovnik, Andrew Gallagher, Tsuhan Chen'
p1839
S'Sadovnik_Its_Not_Polite_2013_CVPR_paper.pdf'
p1840
S'Referring Expression, Attributes, Image Description'
p1841
tp1842
sI641693415
(I641693415
S'A New Model and Simple Algorithms for Multi-label Mumford-Shah Problems'
p1843
S'Byung-Woo Hong, Zhaojin Lu, Ganesh Sundaramoorthi'
p1844
S'Hong_A_New_Model_2013_CVPR_paper.pdf'
p1845
S'Mumford-Shah, level sets, PDE methods, segmentation, joint estimation problems'
p1846
tp1847
sI503709419
(I503709419
S'Multi-class Video Co-segmentation with a Generative Multi-video Model'
p1848
S'Wei-Chen Chiu, Mario Fritz'
p1849
S'Chiu_Multi-class_Video_Co-segmentation_2013_CVPR_paper.pdf'
p1850
S'Video Cosegmentation, Nonparametric Bayesian'
p1851
tp1852
sI689299181
(I689299181
S'A Machine Learning Approach for Non-blind Image Deconvolution'
p1853
S'Christian J. Schuler, Harold Christopher Burger, Stefan Harmeling, Bernhard Schlkopf'
p1854
S'Schuler_A_Machine_Learning_2013_CVPR_paper.pdf'
p1855
S'deconvolution, deblurring, neural networks, learning'
p1856
tp1857
sI298811118
(I298811118
S'Joint Sparsity-Based Representation and Analysis of Unconstrained Activities'
p1858
S'Raghuraman Gopalan'
p1859
S'Gopalan_Joint_Sparsity-Based_Representation_2013_CVPR_paper.pdf'
p1860
S''
tp1861
sI935788281
(I935788281
S'A Theory of Refractive Photo-Light-Path Triangulation'
p1862
S'Visesh Chari, Peter Sturm'
p1863
S'Chari_A_Theory_of_2013_CVPR_paper.pdf'
p1864
S'Light path triangulation, Photometry, Radiometry, Reconstruction, Minimal Solution'
p1865
tp1866
sI646889210
(I646889210
S'Face Recognition in Movie Trailers via Mean Sequence Sparse Representation-Based Classification'
p1867
S'Enrique G. Ortiz, Alan Wright, Mubarak Shah'
p1868
S'Ortiz_Face_Recognition_in_2013_CVPR_paper.pdf'
p1869
S'video face recognition, sparse representation-based classification, l1-minimization'
p1870
tp1871
sI140439295
(I140439295
S'Capturing Complex Spatio-temporal Relations among Facial Muscles for Facial Expression Recognition'
p1872
S'Ziheng Wang, Shangfei Wang, Qiang Ji'
p1873
S'Wang_Capturing_Complex_Spatio-temporal_2013_CVPR_paper.pdf'
p1874
S'ITBN, Facial Expression Recognition'
p1875
tp1876
sI226418437
(I226418437
S'A Thousand Frames in Just a Few Words: Lingual Description of Videos through Latent Topics and Sparse Object Stitching'
p1877
S'Pradipto Das, Chenliang Xu, Richard F. Doell, Jason J. Corso'
p1878
S'Das_A_Thousand_Frames_2013_CVPR_paper.pdf'
p1879
S'video to text, video understanding, multimodal topic model, natural language'
p1880
tp1881
sI676816651
(I676816651
S'Multi-level Discriminative Dictionary Learning towards Hierarchical Visual Categorization'
p1882
S'Li Shen, Shuhui Wang, Gang Sun, Shuqiang Jiang, Qingming Huang'
p1883
S'Shen_Multi-level_Discriminative_Dictionary_2013_CVPR_paper.pdf'
p1884
S'Dictionary learning, Hierarchical structure, Categorization'
p1885
tp1886
sI136171287
(I136171287
S'HDR Deghosting: How to Deal with Saturation?'
p1887
S'Jun Hu, Orazio Gallo, Kari Pulli, Xiaobai Sun'
p1888
S'Hu_HDR_Deghosting_How_2013_CVPR_paper.pdf'
p1889
S''
tp1890
sI656369441
(I656369441
S'Scene Parsing by Integrating Function, Geometry and Appearance Models'
p1891
S'Yibiao Zhao, Song-Chun Zhu'
p1892
S'Zhao_Scene_Parsing_by_2013_CVPR_paper.pdf'
p1893
S'scene parsing, image parsing, function, functionality, affordance, stochastic scene grammar'
p1894
tp1895
sI712566565
(I712566565
S'Alternating Decision Forests'
p1896
S'Samuel Schulter, Paul Wohlhart, Christian Leistner, Amir Saffari, Peter M. Roth, Horst Bischof'
p1897
S'Schulter_Alternating_Decision_Forests_2013_CVPR_paper.pdf'
p1898
S'Random Forests, Boosting, Global Loss'
p1899
tp1900
sI564148007
(I564148007
S'Towards Efficient and Exact MAP-Inference for Large Scale Discrete Computer Vision Problems via Combinatorial Optimization'
p1901
S'Jrg Hendrik Kappes, Markus Speth, Gerhard Reinelt, Christoph Schnrr'
p1902
S'Kappes_Towards_Efficient_and_2013_CVPR_paper.pdf'
p1903
S'Graphical models, discrete optimization, Markov random fields'
p1904
tp1905
sI17164072
(I17164072
S'Incorporating Structural Alternatives and Sharing into Hierarchy for Multiclass Object Recognition and Detection'
p1906
S'Xiaolong Wang, Liang Lin, Lichao Huang, Shuicheng Yan'
p1907
S'Wang_Incorporating_Structural_Alternatives_2013_CVPR_paper.pdf'
p1908
S'object recognition, and-or graph, structure learning, model sharing'
p1909
tp1910
sI786128681
(I786128681
S'Keypoints from Symmetries by Wave Propagation'
p1911
S'Samuele Salti, Alessandro Lanza, Luigi Di_Stefano'
p1912
S'Salti_Keypoints_from_Symmetries_2013_CVPR_paper.pdf'
p1913
S'Detector, keypoints, symmetry, wave equation'
p1914
tp1915
sI292730673
(I292730673
S'Auxiliary Cuts for General Classes of Higher Order Functionals'
p1916
S'Ismail Ben Ayed, Lena Gorelick, Yuri Boykov'
p1917
S'Ayed_Auxiliary_Cuts_for_2013_CVPR_paper.pdf'
p1918
S''
tp1919
sI809783090
(I809783090
S'Graph-Based Optimization with Tubularity Markov Tree for 3D Vessel Segmentation'
p1920
S'Ning Zhu, Albert C.S. Chung'
p1921
S'Zhu_Graph-Based_Optimization_with_2013_CVPR_paper.pdf'
p1922
S'3D Vessel Segmentation, Graph-Based'
p1923
tp1924
sI111947573
(I111947573
S'Recovering Stereo Pairs from Anaglyphs'
p1925
S'Armand Joulin, Sing Bing Kang'
p1926
S'Joulin_Recovering_Stereo_Pairs_2013_CVPR_paper.pdf'
p1927
S'image reconstruction, 3D, anaglyph'
p1928
tp1929
sI937017144
(I937017144
S'Adaptive Active Learning for Image Classification'
p1930
S'Xin Li, Yuhong Guo'
p1931
S'Li_Adaptive_Active_Learning_2013_CVPR_paper.pdf'
p1932
S'active learning, image classification'
p1933
tp1934
sI704466747
(I704466747
S'Geometric Context from Videos'
p1935
S'S. Hussain Raza, Matthias Grundmann, Irfan Essa'
p1936
S'Raza_Geometric_Context_from_2013_CVPR_paper.pdf'
p1937
S'Geometric Context, Scene Understanding, Semantic Segmentation'
p1938
tp1939
sI476692286
(I476692286
S'Optimizing 1-Nearest Prototype Classifiers'
p1940
S'Paul Wohlhart, Martin Kstinger, Michael Donoser, Peter M. Roth, Horst Bischof'
p1941
S'Wohlhart_Optimizing_1-Nearest_Prototype_2013_CVPR_paper.pdf'
p1942
S'Nearest Neighbor Classification, Discriminative Prototype Learning, Classification, Optimization, Machine Learning'
p1943
tp1944
sI978429760
(I978429760
S'Complex Event Detection via Multi-source Video Attributes'
p1945
S'Zhigang Ma, Yi Yang, Zhongwen Xu, Shuicheng Yan, Nicu Sebe, Alexander G. Hauptmann'
p1946
S'Ma_Complex_Event_Detection_2013_CVPR_paper.pdf'
p1947
S''
tp1948
sI125730632
(I125730632
S'Local Fisher Discriminant Analysis for Pedestrian Re-identification'
p1949
S'Sateesh Pedagadi, James Orwell, Sergio Velastin, Boghos Boghossian'
p1950
S'Pedagadi_Local_Fisher_Discriminant_2013_CVPR_paper.pdf'
p1951
S'Pedestrain Re-identification, Metric Learning, Object recognition'
p1952
tp1953
sI89329481
(I89329481
S'Optimized Product Quantization for Approximate Nearest Neighbor Search'
p1954
S'Tiezheng Ge, Kaiming He, Qifa Ke, Jian Sun'
p1955
S'Ge_Optimized_Product_Quantization_2013_CVPR_paper.pdf'
p1956
S'nearest neighbor search, product quantization'
p1957
tp1958
sI252328247
(I252328247
S'Non-uniform Motion Deblurring for Bilayer Scenes'
p1959
S'Chandramouli Paramanand, Ambasamudram N. Rajagopalan'
p1960
S'Paramanand_Non-uniform_Motion_Deblurring_2013_CVPR_paper.pdf'
p1961
S''
tp1962
sI204019534
(I204019534
S'SCaLE: Supervised and Cascaded Laplacian Eigenmaps for Visual Object Recognition Based on Nearest Neighbors'
p1963
S'Ruobing Wu, Yizhou Yu, Wenping Wang'
p1964
S'Wu_SCaLE_Supervised_and_2013_CVPR_paper.pdf'
p1965
S'deep leanring, object recognition, image classification, feature combination'
p1966
tp1967
sI404094803
(I404094803
S'Probabilistic Label Trees for Efficient Large Scale Image Classification'
p1968
S'Baoyuan Liu, Fereshteh Sadeghi, Marshall Tappen, Ohad Shamir, Ce Liu'
p1969
S'Liu_Probabilistic_Label_Trees_2013_CVPR_paper.pdf'
p1970
S'label tree, large-scale recognition, image classification, maximum likelihood estimation'
p1971
tp1972
sI899637076
(I899637076
S'Non-rigid Structure from Motion with Diffusion Maps Prior'
p1973
S'Lili Tao, Bogdan J. Matuszewski'
p1974
S'Tao_Non-rigid_Structure_from_2013_CVPR_paper.pdf'
p1975
S'3D reconstruction, manifold learning, diffusion maps'
p1976
tp1977
sI399714134
(I399714134
S'Inductive Hashing on Manifolds'
p1978
S'Fumin Shen, Chunhua Shen, Qinfeng Shi, Anton van_den_Hengel, Zhenmin Tang'
p1979
S'Shen_Inductive_Hashing_on_2013_CVPR_paper.pdf'
p1980
S'hashing, manifold learning'
p1981
tp1982
sI299134809
(I299134809
S'Light Field Distortion Feature for Transparent Object Recognition'
p1983
S'Kazuki Maeno, Hajime Nagahara, Atsushi Shimada, Rin-Ichiro Taniguchi'
p1984
S'Maeno_Light_Field_Distortion_2013_CVPR_paper.pdf'
p1985
S'Transparent object, Object recognition, Image feature, Light field'
p1986
tp1987
sI264752996
(I264752996
S'Discriminatively Trained And-Or Tree Models for Object Detection'
p1988
S'Xi Song, Tianfu Wu, Yunde Jia, Song-Chun Zhu'
p1989
S'Song_Discriminatively_Trained_And-Or_2013_CVPR_paper.pdf'
p1990
S'And-Or Graph, Part-based Representation, Object Detection, Latent Structural SVM'
p1991
tp1992
sI767164263
(I767164263
S'Improving Image Matting Using Comprehensive Sampling Sets'
p1993
S'Ehsan Shahrian, Deepu Rajan, Brian Price, Scott Cohen'
p1994
S'Shahrian_Improving_Image_Matting_2013_CVPR_paper.pdf'
p1995
S'Comprehensive sampling, Image matting'
p1996
tp1997
sI395904873
(I395904873
S'A Principled Deep Random Field Model for Image Segmentation'
p1998
S'Pushmeet Kohli, Anton Osokin, Stefanie Jegelka'
p1999
S'Kohli_A_Principled_Deep_2013_CVPR_paper.pdf'
p2000
S''
tp2001
sI697888622
(I697888622
S'Joint Spectral Correspondence for Disparate Image Matching'
p2002
S'Mayank Bansal, Kostas Daniilidis'
p2003
S'Bansal_Joint_Spectral_Correspondence_2013_CVPR_paper.pdf'
p2004
S'Eigen, Spectral, image graph, features, matching'
p2005
tp2006
sI189646715
(I189646715
S'Measuring Crowd Collectiveness'
p2007
S'Bolei Zhou, Xiaoou Tang, Xiaogang Wang'
p2008
S'Zhou_Measuring_Crowd_Collectiveness_2013_CVPR_paper.pdf'
p2009
S'Collective Motion, Crowd Behavior, Video Analysis'
p2010
tp2011
sI233525117
(I233525117
S'Analytic Bilinear Appearance Subspace Construction for Modeling Image Irradiance under Natural Illumination and Non-Lambertian Reflectance'
p2012
S'Shireen Y. Elhabian, Aly A. Farag'
p2013
S'Elhabian_Analytic_Bilinear_Appearance_2013_CVPR_paper.pdf'
p2014
S'image irradiance equation, analytic subspaces, (hemi)spherical harmonics, illumination modeling'
p2015
tp2016
sI397780862
(I397780862
S'Learning to Estimate and Remove Non-uniform Image Blur'
p2017
S'Florent Couzini-Devy, Jian Sun, Karteek Alahari, Jean Ponce'
p2018
S'Couzinie-Devy_Learning_to_Estimate_2013_CVPR_paper.pdf'
p2019
S'Non-uniform deblurring, Segmentation, Motion blur, Defocus blur'
p2020
tp2021
sI821449365
(I821449365
S'Crossing the Line: Crowd Counting by Integer Programming with Local Features'
p2022
S'Zheng Ma, Antoni B. Chan'
p2023
S'Ma_Crossing_the_Line_2013_CVPR_paper.pdf'
p2024
S'crowd counting, integer programming, local feature, regression'
p2025
tp2026
sI40103915
(I40103915
S'Generalized Domain-Adaptive Dictionaries'
p2027
S'Sumit Shekhar, Vishal M. Patel, Hien V. Nguyen, Rama Chellappa'
p2028
S'Shekhar_Generalized_Domain-Adaptive_Dictionaries_2013_CVPR_paper.pdf'
p2029
S''
tp2030
sI524347030
(I524347030
S'Representing and Discovering Adversarial Team Behaviors Using Player Roles'
p2031
S'Patrick Lucey, Alina Bialkowski, Peter Carr, Stuart Morgan, Iain Matthews, Yaser Sheikh'
p2032
S'Lucey_Representing_and_Discovering_2013_CVPR_paper.pdf'
p2033
S'Video Analysis'
p2034
tp2035
sI117194635
(I117194635
S'Intrinsic Scene Properties from a Single RGB-D Image'
p2036
S'Jonathan T. Barron, Jitendra Malik'
p2037
S'Barron_Intrinsic_Scene_Properties_2013_CVPR_paper.pdf'
p2038
S''
tp2039
sI324312976
(I324312976
S'Bilinear Programming for Human Activity Recognition with Unknown MRF Graphs'
p2040
S'Zhenhua Wang, Qinfeng Shi, Chunhua Shen, Anton van_den_Hengel'
p2041
S'Wang_Bilinear_Programming_for_2013_CVPR_paper.pdf'
p2042
S''
tp2043
sI251703960
(I251703960
S'Discovering the Structure of a Planar Mirror System from Multiple Observations of a Single Point'
p2044
S'Ilya Reshetouski, Alkhazur Manakov, Ayush Bandhari, Ramesh Raskar, Hans-Peter Seidel, Ivo Ihrke'
p2045
S'Reshetouski_Discovering_the_Structure_2013_CVPR_paper.pdf'
p2046
S'mirrors, time-of-flight, geometry reconstruction, analysis'
p2047
tp2048
sI958633875
(I958633875
S'Robust Discriminative Response Map Fitting with Constrained Local Models'
p2049
S'Akshay Asthana, Stefanos Zafeiriou, Shiyang Cheng, Maja Pantic'
p2050
S'Asthana_Robust_Discriminative_Response_2013_CVPR_paper.pdf'
p2051
S'Constrained Local Models, Generic Face Alignment, Non-Rigid Registration'
p2052
tp2053
sI182241172
(I182241172
S'Efficient Computation of Shortest Path-Concavity for 3D Meshes'
p2054
S'Henrik Zimmer, Marcel Campen, Leif Kobbelt'
p2055
S'Zimmer_Efficient_Computation_of_2013_CVPR_paper.pdf'
p2056
S''
tp2057
sI523329431
(I523329431
S'Towards Contactless, Low-Cost and Accurate 3D Fingerprint Identification'
p2058
S'Ajay Kumar, Cyril Kwong'
p2059
S'Kumar_Towards_Contactless_Low-Cost_2013_CVPR_paper.pdf'
p2060
S'3D Fingerprint Identification, Biometrics, Photometric Stereo, 3D Fingerprint Reconstruction, Contactless Fingerprint Recognition'
p2061
tp2062
sI992872344
(I992872344
S'In Defense of 3D-Label Stereo'
p2063
S'Carl Olsson, Johannes Uln, Yuri Boykov'
p2064
S'Olsson_In_Defense_of_2013_CVPR_paper.pdf'
p2065
S''
tp2066
sI450617242
(I450617242
S'Relative Volume Constraints for Single View 3D Reconstruction'
p2067
S'Eno Tppe, Claudia Nieuwenhuis, Daniel Cremers'
p2068
S'Toppe_Relative_Volume_Constraints_2013_CVPR_paper.pdf'
p2069
S'single view, 3D reconstruction, shading, depth profile, volume'
p2070
tp2071
sI794298279
(I794298279
S'Fusing Depth from Defocus and Stereo with Coded Apertures'
p2072
S'Yuichi Takeda, Shinsaku Hiura, Kosuke Sato'
p2073
S'Takeda_Fusing_Depth_from_2013_CVPR_paper.pdf'
p2074
S''
tp2075
sI25677736
(I25677736
S'Supervised Descent Method and Its Applications to Face Alignment'
p2076
S'Xuehan Xiong, Fernando De_la_Torre'
p2077
S'Xiong_Supervised_Descent_Method_2013_CVPR_paper.pdf'
p2078
S'face alignment, supervised descent method, facial feature tracking, non-linear least squares'
p2079
tp2080
sI341303210
(I341303210
S'Tensor-Based Human Body Modeling'
p2081
S'Yinpeng Chen, Zicheng Liu, Zhengyou Zhang'
p2082
S'Chen_Tensor-Based_Human_Body_2013_CVPR_paper.pdf'
p2083
S'Human Body Modeling, Tensor Decomposition'
p2084
tp2085
sI491075499
(I491075499
S'Motion Estimation for Self-Driving Cars with a Generalized Camera'
p2086
S'Gim Hee Lee, Friedrich Faundorfer, Marc Pollefeys'
p2087
S'Lee_Motion_Estimation_for_2013_CVPR_paper.pdf'
p2088
S'Generalized Camera, Motion Estimation, Ackermann Motion Model, Self-Driving Car'
p2089
tp2090
sI634083249
(I634083249
S'3D Pictorial Structures for Multiple View Articulated Pose Estimation'
p2091
S'Magnus Burenius, Josephine Sullivan, Stefan Carlsson'
p2092
S'Burenius_3D_Pictorial_Structures_2013_CVPR_paper.pdf'
p2093
S'pictorial structures, part-based models, human pose estimation, motion capture, multiple view 3D reconstruction'
p2094
tp2095
sI234586036
(I234586036
S'Beyond Physical Connections: Tree Models in Human Pose Estimation'
p2096
S'Fang Wang, Yi Li'
p2097
S'Wang_Beyond_Physical_Connections_2013_CVPR_paper.pdf'
p2098
S'human pose estimation, graphical model, object recognition'
p2099
tp2100
sI843040693
(I843040693
S'Spectral Modeling and Relighting of Reflective-Fluorescent Scenes'
p2101
S'Antony Lam, Imari Sato'
p2102
S'Lam_Spectral_Modeling_and_2013_CVPR_paper.pdf'
p2103
S'relighting, fluorescence, hyperspectral imaging'
p2104
tp2105
sI97163191
(I97163191
S'Expanded Parts Model for Human Attribute and Action Recognition in Still Images'
p2106
S'Gaurav Sharma, Frdric Jurie, Cordelia Schmid'
p2107
S'Sharma_Expanded_Parts_Model_2013_CVPR_paper.pdf'
p2108
S'human analysis, part-based, discriminative, margin maximization, expanded parts, attributes, human'
p2109
tp2110
sI912111548
(I912111548
S'Computationally Efficient Regression on a Dependency Graph for Human Pose Estimation'
p2111
S'Kota Hara, Rama Chellappa'
p2112
S'Hara_Computationally_Efficient_Regression_2013_CVPR_paper.pdf'
p2113
S'Regression, Human Pose Estimation'
p2114
tp2115
sI520650685
(I520650685
S'Label Propagation from ImageNet to 3D Point Clouds'
p2116
S'Yan Wang, Rongrong Ji, Shih-Fu Chang'
p2117
S'Wang_Label_Propagation_from_2013_CVPR_paper.pdf'
p2118
S''
tp2119
sI440520646
(I440520646
S'A Fast Semidefinite Approach to Solving Binary Quadratic Problems'
p2120
S'Peng Wang, Chunhua Shen, Anton van_den_Hengel'
p2121
S'Wang_A_Fast_Semidefinite_2013_CVPR_paper.pdf'
p2122
S''
tp2123
sI32772040
(I32772040
S'Nonparametric Scene Parsing with Adaptive Feature Relevance and Semantic Context'
p2124
S'Gautam Singh, Jana Kosecka'
p2125
S'Singh_Nonparametric_Scene_Parsing_2013_CVPR_paper.pdf'
p2126
S'scene understanding, semantic segmentation, feature relevance'
p2127
tp2128
sI461230028
(I461230028
S'Optimal Geometric Fitting under the Truncated L2-Norm'
p2129
S'Erik Ask, Olof Enqvist, Fredrik Kahl'
p2130
S'Ask_Optimal_Geometric_Fitting_2013_CVPR_paper.pdf'
p2131
S'Optimization, Registration, Stitching, Truncated Norms'
p2132
tp2133
sI269803470
(I269803470
S'Visual Place Recognition with Repetitive Structures'
p2134
S'Akihiko Torii, Josef Sivic, Tom Pajdla, Masatoshi Okutomi'
p2135
S'Torii_Visual_Place_Recognition_2013_CVPR_paper.pdf'
p2136
S'repetitive pattern detection, place recognition, image retrieval'
p2137
tp2138
sI58218450
(I58218450
S'Pixel-Level Hand Detection in Ego-centric Videos'
p2139
S'Cheng Li, Kris M. Kitani'
p2140
S'Li_Pixel-Level_Hand_Detection_2013_CVPR_paper.pdf'
p2141
S'First-person Vision, hand detection'
p2142
tp2143
sI104865747
(I104865747
S'Handling Noise in Single Image Deblurring Using Directional Filters'
p2144
S'Lin Zhong, Sunghyun Cho, Dimitris Metaxas, Sylvain Paris, Jue Wang'
p2145
S'Zhong_Handling_Noise_in_2013_CVPR_paper.pdf'
p2146
S''
tp2147
sI424222678
(I424222678
S'SCALPEL: Segmentation Cascades with Localized Priors and Efficient Learning'
p2148
S'David Weiss, Ben Taskar'
p2149
S'Weiss_SCALPEL_Segmentation_Cascades_2013_CVPR_paper.pdf'
p2150
S''
tp2151
sI152469156
(I152469156
S'Multi-task Sparse Learning with Beta Process Prior for Action Recognition'
p2152
S'Chunfeng Yuan, Weiming Hu, Guodong Tian, Shuang Yang, Haoran Wang'
p2153
S'Yuan_Multi-task_Sparse_Learning_2013_CVPR_paper.pdf'
p2154
S''
tp2155
sI328804320
(I328804320
S'Active Contours with Group Similarity'
p2156
S'Xiaowei Zhou, Xiaojie Huang, James S. Duncan, Weichuan Yu'
p2157
S'Zhou_Active_Contours_with_2013_CVPR_paper.pdf'
p2158
S'active contours, low-rank, segmentation'
p2159
tp2160
sI193155046
(I193155046
S"Harry Potter's Marauder's Map: Localizing and Tracking Multiple Persons-of-Interest by Nonnegative Discretization"
p2161
S'Shoou-I Yu, Yi Yang, Alexander Hauptmann'
p2162
S'Yu_Harry_Potters_Marauders_2013_CVPR_paper.pdf'
p2163
S'Multi-Camera Tracking, Multi-Object Tracking, Semi-Supervised Learning'
p2164
tp2165
sI504619687
(I504619687
S'Principal Observation Ray Calibration for Tiled-Lens-Array Integral Imaging Display'
p2166
S'Weiming Li, Haitao Wang, Mingcai Zhou, Shandong Wang, Shaohui Jiao, Xing Mei, Tao Hong, Hoyoung Lee, Jiyeun Kim'
p2167
S'Li_Principal_Observation_Ray_2013_CVPR_paper.pdf'
p2168
S'Integral imaging, 3D display, calibration, computer vision, structured light'
p2169
tp2170
sI997816300
(I997816300
S'Supervised Kernel Descriptors for Visual Recognition'
p2171
S'Peng Wang, Jingdong Wang, Gang Zeng, Weiwei Xu, Hongbin Zha, Shipeng Li'
p2172
S'Wang_Supervised_Kernel_Descriptors_2013_CVPR_paper.pdf'
p2173
S''
tp2174
sI993902583
(I993902583
S'A Statistical Model for Recreational Trails in Aerial Images'
p2175
S'Andrew Predoehl, Scott Morris, Kobus Barnard'
p2176
S'Predoehl_A_Statistical_Model_2013_CVPR_paper.pdf'
p2177
S'statistical model, superpixels, GIS, shortest path'
p2178
tp2179
sI520308728
(I520308728
S'Sensing and Recognizing Surface Textures Using a GelSight Sensor'
p2180
S'Rui Li, Edward H. Adelson'
p2181
S'Li_Sensing_and_Recognizing_2013_CVPR_paper.pdf'
p2182
S'tactile sensing, texture recognition, local binary pattern'
p2183
tp2184
sI278646777
(I278646777
S'Visual Tracking via Locality Sensitive Histograms'
p2185
S'Shengfeng He, Qingxiong Yang, Rynson W.H. Lau, Jiang Wang, Ming-Hsuan Yang'
p2186
S'He_Visual_Tracking_via_2013_CVPR_paper.pdf'
p2187
S'Visual tracking, Locality sensitive histograms, illumination invariant features'
p2188
tp2189
sI770189307
(I770189307
S'SWIGS: A Swift Guided Sampling Method'
p2190
S'Victor Fragoso, Matthew Turk'
p2191
S'Fragoso_SWIGS_A_Swift_2013_CVPR_paper.pdf'
p2192
S''
tp2193
s.